ARM GAS  C:\Users\bertz\AppData\Local\Temp\ccWftJE8.s 			page 1


   1              		.cpu cortex-m3
   2              		.eabi_attribute 20, 1
   3              		.eabi_attribute 21, 1
   4              		.eabi_attribute 23, 3
   5              		.eabi_attribute 24, 1
   6              		.eabi_attribute 25, 1
   7              		.eabi_attribute 26, 1
   8              		.eabi_attribute 30, 1
   9              		.eabi_attribute 34, 1
  10              		.eabi_attribute 18, 4
  11              		.file	"freertos.c"
  12              		.text
  13              	.Ltext0:
  14              		.cfi_sections	.debug_frame
  15              		.section	.text.StartDefaultTask,"ax",%progbits
  16              		.align	1
  17              		.global	StartDefaultTask
  18              		.syntax unified
  19              		.thumb
  20              		.thumb_func
  21              		.fpu softvfp
  23              	StartDefaultTask:
  24              	.LFB9:
  25              		.file 1 "Core/Src/freertos.c"
   1:Core/Src/freertos.c **** /**
   2:Core/Src/freertos.c ****   ******************************************************************************
   3:Core/Src/freertos.c ****   * File Name          : freertos.c
   4:Core/Src/freertos.c ****   * Description        : Code for freertos applications
   5:Core/Src/freertos.c ****   ******************************************************************************
   6:Core/Src/freertos.c ****   * This notice applies to any and all portions of this file
   7:Core/Src/freertos.c ****   * that are not between comment pairs USER CODE BEGIN and
   8:Core/Src/freertos.c ****   * USER CODE END. Other portions of this file, whether 
   9:Core/Src/freertos.c ****   * inserted by the user or by software development tools
  10:Core/Src/freertos.c ****   * are owned by their respective copyright owners.
  11:Core/Src/freertos.c ****   *
  12:Core/Src/freertos.c ****   * Copyright (c) 2018 STMicroelectronics International N.V. 
  13:Core/Src/freertos.c ****   * All rights reserved.
  14:Core/Src/freertos.c ****   *
  15:Core/Src/freertos.c ****   * Redistribution and use in source and binary forms, with or without 
  16:Core/Src/freertos.c ****   * modification, are permitted, provided that the following conditions are met:
  17:Core/Src/freertos.c ****   *
  18:Core/Src/freertos.c ****   * 1. Redistribution of source code must retain the above copyright notice, 
  19:Core/Src/freertos.c ****   *    this list of conditions and the following disclaimer.
  20:Core/Src/freertos.c ****   * 2. Redistributions in binary form must reproduce the above copyright notice,
  21:Core/Src/freertos.c ****   *    this list of conditions and the following disclaimer in the documentation
  22:Core/Src/freertos.c ****   *    and/or other materials provided with the distribution.
  23:Core/Src/freertos.c ****   * 3. Neither the name of STMicroelectronics nor the names of other 
  24:Core/Src/freertos.c ****   *    contributors to this software may be used to endorse or promote products 
  25:Core/Src/freertos.c ****   *    derived from this software without specific written permission.
  26:Core/Src/freertos.c ****   * 4. This software, including modifications and/or derivative works of this 
  27:Core/Src/freertos.c ****   *    software, must execute solely and exclusively on microcontroller or
  28:Core/Src/freertos.c ****   *    microprocessor devices manufactured by or for STMicroelectronics.
  29:Core/Src/freertos.c ****   * 5. Redistribution and use of this software other than as permitted under 
  30:Core/Src/freertos.c ****   *    this license is void and will automatically terminate your rights under 
  31:Core/Src/freertos.c ****   *    this license. 
  32:Core/Src/freertos.c ****   *
  33:Core/Src/freertos.c ****   * THIS SOFTWARE IS PROVIDED BY STMICROELECTRONICS AND CONTRIBUTORS "AS IS" 
ARM GAS  C:\Users\bertz\AppData\Local\Temp\ccWftJE8.s 			page 2


  34:Core/Src/freertos.c ****   * AND ANY EXPRESS, IMPLIED OR STATUTORY WARRANTIES, INCLUDING, BUT NOT 
  35:Core/Src/freertos.c ****   * LIMITED TO, THE IMPLIED WARRANTIES OF MERCHANTABILITY, FITNESS FOR A 
  36:Core/Src/freertos.c ****   * PARTICULAR PURPOSE AND NON-INFRINGEMENT OF THIRD PARTY INTELLECTUAL PROPERTY
  37:Core/Src/freertos.c ****   * RIGHTS ARE DISCLAIMED TO THE FULLEST EXTENT PERMITTED BY LAW. IN NO EVENT 
  38:Core/Src/freertos.c ****   * SHALL STMICROELECTRONICS OR CONTRIBUTORS BE LIABLE FOR ANY DIRECT, INDIRECT,
  39:Core/Src/freertos.c ****   * INCIDENTAL, SPECIAL, EXEMPLARY, OR CONSEQUENTIAL DAMAGES (INCLUDING, BUT NOT
  40:Core/Src/freertos.c ****   * LIMITED TO, PROCUREMENT OF SUBSTITUTE GOODS OR SERVICES; LOSS OF USE, DATA, 
  41:Core/Src/freertos.c ****   * OR PROFITS; OR BUSINESS INTERRUPTION) HOWEVER CAUSED AND ON ANY THEORY OF 
  42:Core/Src/freertos.c ****   * LIABILITY, WHETHER IN CONTRACT, STRICT LIABILITY, OR TORT (INCLUDING 
  43:Core/Src/freertos.c ****   * NEGLIGENCE OR OTHERWISE) ARISING IN ANY WAY OUT OF THE USE OF THIS SOFTWARE,
  44:Core/Src/freertos.c ****   * EVEN IF ADVISED OF THE POSSIBILITY OF SUCH DAMAGE.
  45:Core/Src/freertos.c ****   *
  46:Core/Src/freertos.c ****   ******************************************************************************
  47:Core/Src/freertos.c ****   */
  48:Core/Src/freertos.c **** 
  49:Core/Src/freertos.c **** /* Includes ------------------------------------------------------------------*/
  50:Core/Src/freertos.c **** #include "FreeRTOS.h"
  51:Core/Src/freertos.c **** #include "task.h"
  52:Core/Src/freertos.c **** #include "cmsis_os.h"
  53:Core/Src/freertos.c **** 
  54:Core/Src/freertos.c **** /* USER CODE BEGIN Includes */     
  55:Core/Src/freertos.c **** #include "stdio.h"
  56:Core/Src/freertos.c **** #include "string.h"
  57:Core/Src/freertos.c **** /* USER CODE END Includes */
  58:Core/Src/freertos.c **** 
  59:Core/Src/freertos.c **** /* Variables -----------------------------------------------------------------*/
  60:Core/Src/freertos.c **** osThreadId defaultTaskHandle;
  61:Core/Src/freertos.c **** 
  62:Core/Src/freertos.c **** /* USER CODE BEGIN Variables */
  63:Core/Src/freertos.c **** osThreadId scanBSPATaskHandle;
  64:Core/Src/freertos.c **** osThreadId scanBSPBTaskHandle;
  65:Core/Src/freertos.c **** osThreadId scanUartsTaskHandle;
  66:Core/Src/freertos.c **** 
  67:Core/Src/freertos.c **** xSemaphoreHandle xScanBSPABoardSemaphore;
  68:Core/Src/freertos.c **** xSemaphoreHandle xScanBSPBBoardSemaphore;
  69:Core/Src/freertos.c **** xSemaphoreHandle xScanCoreBoardSemaphore;
  70:Core/Src/freertos.c **** 
  71:Core/Src/freertos.c **** extern uint8_t 	CoreBoardReceiveBuff[RXBUFFERSIZE];
  72:Core/Src/freertos.c **** extern uint8_t 	CoreBoardReceiveInfo[RXBUFFERSIZE];
  73:Core/Src/freertos.c **** extern uint8_t	CoreBoardRx_BufferLen;
  74:Core/Src/freertos.c **** extern uint8_t 	CoreBoardRx_InfoLen;
  75:Core/Src/freertos.c **** extern uint8_t 	BSPABoardReceiveBuff[RXBUFFERSIZE];
  76:Core/Src/freertos.c **** extern uint8_t 	BSPABoardReceiveInfo[RXBUFFERSIZE];
  77:Core/Src/freertos.c **** extern uint8_t	BSPABoardRx_BufferLen;
  78:Core/Src/freertos.c **** extern uint8_t 	BSPABoardRx_InfoLen;
  79:Core/Src/freertos.c **** extern uint8_t 	BSPBBoardReceiveBuff[RXBUFFERSIZE];
  80:Core/Src/freertos.c **** extern uint8_t 	BSPBBoardReceiveInfo[RXBUFFERSIZE];
  81:Core/Src/freertos.c **** extern uint8_t	BSPBBoardRx_BufferLen;
  82:Core/Src/freertos.c **** extern uint8_t 	BSPBBoardRx_InfoLen;
  83:Core/Src/freertos.c **** 
  84:Core/Src/freertos.c **** portBASE_TYPE tReturn;
  85:Core/Src/freertos.c **** /* USER CODE END Variables */
  86:Core/Src/freertos.c **** 
  87:Core/Src/freertos.c **** /* Function prototypes -------------------------------------------------------*/
  88:Core/Src/freertos.c **** void StartDefaultTask(void const * argument);
  89:Core/Src/freertos.c **** 
  90:Core/Src/freertos.c **** void MX_FREERTOS_Init(void); /* (MISRA C 2004 rule 8.1) */
ARM GAS  C:\Users\bertz\AppData\Local\Temp\ccWftJE8.s 			page 3


  91:Core/Src/freertos.c **** 
  92:Core/Src/freertos.c **** /* USER CODE BEGIN FunctionPrototypes */
  93:Core/Src/freertos.c **** void vApplicationIdleHook(void);
  94:Core/Src/freertos.c **** void StartScanBSPATask(void const * argument);
  95:Core/Src/freertos.c **** void StartScanBSPBTask(void const * argument);
  96:Core/Src/freertos.c **** void StartScanBSPCTask(void const * argument);
  97:Core/Src/freertos.c **** void StartScanUsartsTask(void const * argument);
  98:Core/Src/freertos.c **** 
  99:Core/Src/freertos.c **** 
 100:Core/Src/freertos.c **** /* USER CODE END FunctionPrototypes */
 101:Core/Src/freertos.c **** 
 102:Core/Src/freertos.c **** /* Hook prototypes */
 103:Core/Src/freertos.c **** 
 104:Core/Src/freertos.c **** /* Init FreeRTOS */
 105:Core/Src/freertos.c **** 
 106:Core/Src/freertos.c **** void MX_FREERTOS_Init(void) {
 107:Core/Src/freertos.c ****   /* USER CODE BEGIN Init */
 108:Core/Src/freertos.c ****        
 109:Core/Src/freertos.c ****   /* USER CODE END Init */
 110:Core/Src/freertos.c **** 
 111:Core/Src/freertos.c ****   /* USER CODE BEGIN RTOS_MUTEX */
 112:Core/Src/freertos.c ****   /* add mutexes, ... */
 113:Core/Src/freertos.c ****   /* USER CODE END RTOS_MUTEX */
 114:Core/Src/freertos.c **** 
 115:Core/Src/freertos.c ****   /* USER CODE BEGIN RTOS_SEMAPHORES */
 116:Core/Src/freertos.c ****   /* add semaphores, ... */
 117:Core/Src/freertos.c ****   xScanCoreBoardSemaphore = xSemaphoreCreateBinary();
 118:Core/Src/freertos.c ****   xScanBSPABoardSemaphore = xSemaphoreCreateBinary();
 119:Core/Src/freertos.c ****   xScanBSPBBoardSemaphore = xSemaphoreCreateBinary();
 120:Core/Src/freertos.c ****   /* USER CODE END RTOS_SEMAPHORES */
 121:Core/Src/freertos.c **** 
 122:Core/Src/freertos.c ****   /* USER CODE BEGIN RTOS_TIMERS */
 123:Core/Src/freertos.c ****   /* start timers, add new ones, ... */
 124:Core/Src/freertos.c ****   /* USER CODE END RTOS_TIMERS */
 125:Core/Src/freertos.c **** 
 126:Core/Src/freertos.c ****   /* Create the thread(s) */
 127:Core/Src/freertos.c ****   /* definition and creation of defaultTask */
 128:Core/Src/freertos.c ****   osThreadDef(defaultTask, StartDefaultTask, osPriorityNormal, 1, 64);
 129:Core/Src/freertos.c ****   defaultTaskHandle = osThreadCreate(osThread(defaultTask), NULL);
 130:Core/Src/freertos.c **** 
 131:Core/Src/freertos.c ****   /* USER CODE BEGIN RTOS_THREADS */
 132:Core/Src/freertos.c ****   /* add threads, ... */
 133:Core/Src/freertos.c ****   /*
 134:Core/Src/freertos.c ****   tReturn = xTaskCreate((TaskFunction_t)StartScanBSPATask,
 135:Core/Src/freertos.c ****   				(const char *)"scanBSPATask",
 136:Core/Src/freertos.c ****   				(uint16_t    )128,
 137:Core/Src/freertos.c ****   				(void *		 )NULL,
 138:Core/Src/freertos.c ****   				(UBaseType_t )0,
 139:Core/Src/freertos.c ****   				(TaskHandle_t*)&scanBSPATaskHandle);
 140:Core/Src/freertos.c ****   if(pdPASS == tReturn)
 141:Core/Src/freertos.c ****   {
 142:Core/Src/freertos.c **** 	printf(" Scan BSPA Task Create OK!\r\n");
 143:Core/Src/freertos.c ****   }
 144:Core/Src/freertos.c ****   
 145:Core/Src/freertos.c ****   tReturn = xTaskCreate((TaskFunction_t)StartScanBSPBTask,
 146:Core/Src/freertos.c ****   				(const char *)"scanBSPBTask",
 147:Core/Src/freertos.c ****   				(uint16_t    )64,
ARM GAS  C:\Users\bertz\AppData\Local\Temp\ccWftJE8.s 			page 4


 148:Core/Src/freertos.c ****   				(void *		 )NULL,
 149:Core/Src/freertos.c ****   				(UBaseType_t )1,
 150:Core/Src/freertos.c ****   				(TaskHandle_t*)&scanBSPBTaskHandle);
 151:Core/Src/freertos.c ****    if(pdPASS == tReturn)
 152:Core/Src/freertos.c ****   {
 153:Core/Src/freertos.c **** 	printf(" Scan BSPB Task Create OK! \r\n");
 154:Core/Src/freertos.c ****   }
 155:Core/Src/freertos.c ****   */
 156:Core/Src/freertos.c ****   
 157:Core/Src/freertos.c ****   tReturn = xTaskCreate((TaskFunction_t)StartScanUsartsTask,
 158:Core/Src/freertos.c ****   				(const char *)"scanUartsTask",
 159:Core/Src/freertos.c ****   				(uint16_t    )256,
 160:Core/Src/freertos.c ****   				(void *		 )NULL,
 161:Core/Src/freertos.c ****   				(UBaseType_t )1,
 162:Core/Src/freertos.c ****   				(TaskHandle_t*)&scanUartsTaskHandle);
 163:Core/Src/freertos.c ****   if(pdPASS == tReturn)
 164:Core/Src/freertos.c ****   {
 165:Core/Src/freertos.c **** 	printf(" Scan Core Board Task Create OK! \r\n");
 166:Core/Src/freertos.c ****   }
 167:Core/Src/freertos.c ****   
 168:Core/Src/freertos.c ****   /*
 169:Core/Src/freertos.c ****   osThreadDef(scanBSPATask,StartScanBSPATask,osPriorityAboveNormal,0,128);
 170:Core/Src/freertos.c ****   scanBSPATaskHandle = osThreadCreate(osThread(scanBSPATask), NULL);
 171:Core/Src/freertos.c ****   
 172:Core/Src/freertos.c ****   osThreadDef(scanBSPBTask,StartScanBSPBTask,osPriorityAboveNormal,0,128);
 173:Core/Src/freertos.c ****   scanBSPBTaskHandle = osThreadCreate(osThread(scanBSPBTask), NULL);
 174:Core/Src/freertos.c ****   
 175:Core/Src/freertos.c ****   osThreadDef(scanCoreBoardTask, StartScanCoreBoardTask, osPriorityHigh,0,128);
 176:Core/Src/freertos.c ****   scanCoreBoardTaskHandle = osThreadCreate(osThread(scanCoreBoardTask), NULL);
 177:Core/Src/freertos.c ****   */
 178:Core/Src/freertos.c ****   /* USER CODE END RTOS_THREADS */
 179:Core/Src/freertos.c **** 
 180:Core/Src/freertos.c ****   /* USER CODE BEGIN RTOS_QUEUES */
 181:Core/Src/freertos.c ****   /* add queues, ... */
 182:Core/Src/freertos.c ****   /* USER CODE END RTOS_QUEUES */
 183:Core/Src/freertos.c **** }
 184:Core/Src/freertos.c **** 
 185:Core/Src/freertos.c **** /* StartDefaultTask function */
 186:Core/Src/freertos.c **** void StartDefaultTask(void const * argument)
 187:Core/Src/freertos.c **** {
  26              		.loc 1 187 0
  27              		.cfi_startproc
  28              		@ Volatile: function does not return.
  29              		@ args = 0, pretend = 0, frame = 0
  30              		@ frame_needed = 0, uses_anonymous_args = 0
  31              	.LVL0:
  32 0000 08B5     		push	{r3, lr}
  33              	.LCFI0:
  34              		.cfi_def_cfa_offset 8
  35              		.cfi_offset 3, -8
  36              		.cfi_offset 14, -4
  37              	.LVL1:
  38              	.L2:
 188:Core/Src/freertos.c **** 
 189:Core/Src/freertos.c ****   /* USER CODE BEGIN StartDefaultTask */
 190:Core/Src/freertos.c ****   /* Infinite loop */
 191:Core/Src/freertos.c ****   for(;;)
ARM GAS  C:\Users\bertz\AppData\Local\Temp\ccWftJE8.s 			page 5


 192:Core/Src/freertos.c ****   {
 193:Core/Src/freertos.c ****     osDelay(500);
  39              		.loc 1 193 0 discriminator 1
  40 0002 4FF4FA70 		mov	r0, #500
  41 0006 FFF7FEFF 		bl	osDelay
  42              	.LVL2:
 194:Core/Src/freertos.c **** 	printf("Welcome to USE FreeRTOS \r\n");
  43              		.loc 1 194 0 discriminator 1
  44 000a 0248     		ldr	r0, .L4
  45 000c FFF7FEFF 		bl	puts
  46              	.LVL3:
  47 0010 F7E7     		b	.L2
  48              	.L5:
  49 0012 00BF     		.align	2
  50              	.L4:
  51 0014 00000000 		.word	.LC2
  52              		.cfi_endproc
  53              	.LFE9:
  55              		.section	.text.StartScanUsartsTask,"ax",%progbits
  56              		.align	1
  57              		.global	StartScanUsartsTask
  58              		.syntax unified
  59              		.thumb
  60              		.thumb_func
  61              		.fpu softvfp
  63              	StartScanUsartsTask:
  64              	.LFB13:
 195:Core/Src/freertos.c ****   }
 196:Core/Src/freertos.c ****   /* USER CODE END StartDefaultTask */
 197:Core/Src/freertos.c **** }
 198:Core/Src/freertos.c **** 
 199:Core/Src/freertos.c **** /* USER CODE BEGIN Application */
 200:Core/Src/freertos.c **** void vApplicationIdleHook(void)
 201:Core/Src/freertos.c **** {
 202:Core/Src/freertos.c **** 	for(;;)
 203:Core/Src/freertos.c **** 	{
 204:Core/Src/freertos.c **** 		//printf("Idle Hook Function\r\n");
 205:Core/Src/freertos.c **** 		//
 206:Core/Src/freertos.c **** 	}
 207:Core/Src/freertos.c **** }
 208:Core/Src/freertos.c **** void StartScanBSPATask(void const * argument)
 209:Core/Src/freertos.c **** {
 210:Core/Src/freertos.c **** 	for(;;)
 211:Core/Src/freertos.c **** 	{
 212:Core/Src/freertos.c **** 		vTaskDelay(500);
 213:Core/Src/freertos.c **** 		printf("ScanBSPA \r\n");
 214:Core/Src/freertos.c **** 	}
 215:Core/Src/freertos.c **** }
 216:Core/Src/freertos.c **** void StartScanBSPBTask(void const * argument)
 217:Core/Src/freertos.c **** {
 218:Core/Src/freertos.c **** 	for(;;)
 219:Core/Src/freertos.c **** 	{
 220:Core/Src/freertos.c **** 		vTaskDelay(500);
 221:Core/Src/freertos.c **** 		printf("ScanBSPB \r\n");
 222:Core/Src/freertos.c **** 	}
 223:Core/Src/freertos.c **** }
 224:Core/Src/freertos.c **** void StartScanUsartsTask(void const * argument)
ARM GAS  C:\Users\bertz\AppData\Local\Temp\ccWftJE8.s 			page 6


 225:Core/Src/freertos.c **** {
  65              		.loc 1 225 0
  66              		.cfi_startproc
  67              		@ args = 0, pretend = 0, frame = 0
  68              		@ frame_needed = 0, uses_anonymous_args = 0
  69              	.LVL4:
  70 0000 70B5     		push	{r4, r5, r6, lr}
  71              	.LCFI1:
  72              		.cfi_def_cfa_offset 16
  73              		.cfi_offset 4, -16
  74              		.cfi_offset 5, -12
  75              		.cfi_offset 6, -8
  76              		.cfi_offset 14, -4
  77              	.LVL5:
 226:Core/Src/freertos.c **** 	BaseType_t err = pdFALSE;
 227:Core/Src/freertos.c **** 	xSemaphoreTake(xScanBSPABoardSemaphore, 0);
  78              		.loc 1 227 0
  79 0002 0023     		movs	r3, #0
  80 0004 1A46     		mov	r2, r3
  81 0006 1946     		mov	r1, r3
  82 0008 3248     		ldr	r0, .L16
  83              	.LVL6:
  84 000a 0068     		ldr	r0, [r0]
  85 000c FFF7FEFF 		bl	xQueueGenericReceive
  86              	.LVL7:
 228:Core/Src/freertos.c **** 	xSemaphoreTake(xScanBSPBBoardSemaphore, 0);
  87              		.loc 1 228 0
  88 0010 0023     		movs	r3, #0
  89 0012 1A46     		mov	r2, r3
  90 0014 1946     		mov	r1, r3
  91 0016 3048     		ldr	r0, .L16+4
  92 0018 0068     		ldr	r0, [r0]
  93 001a FFF7FEFF 		bl	xQueueGenericReceive
  94              	.LVL8:
 229:Core/Src/freertos.c **** 	xSemaphoreTake(xScanCoreBoardSemaphore, 0);
  95              		.loc 1 229 0
  96 001e 0023     		movs	r3, #0
  97 0020 1A46     		mov	r2, r3
  98 0022 1946     		mov	r1, r3
  99 0024 2D48     		ldr	r0, .L16+8
 100 0026 0068     		ldr	r0, [r0]
 101 0028 FFF7FEFF 		bl	xQueueGenericReceive
 102              	.LVL9:
 103 002c 1EE0     		b	.L10
 104              	.LVL10:
 105              	.L14:
 230:Core/Src/freertos.c **** 	for(;;)
 231:Core/Src/freertos.c **** 	{
 232:Core/Src/freertos.c **** 		err = xSemaphoreTake(xScanBSPABoardSemaphore, 5);
 233:Core/Src/freertos.c **** 		if(err == pdTRUE)
 234:Core/Src/freertos.c **** 		{
 235:Core/Src/freertos.c **** 			printf("BSPABoardRx_Len = %03d\n %s\r\n",BSPABoardRx_InfoLen,BSPABoardReceiveInfo);
 106              		.loc 1 235 0
 107 002e 2C4D     		ldr	r5, .L16+12
 108 0030 2C4C     		ldr	r4, .L16+16
 109 0032 2A46     		mov	r2, r5
 110 0034 2178     		ldrb	r1, [r4]	@ zero_extendqisi2
ARM GAS  C:\Users\bertz\AppData\Local\Temp\ccWftJE8.s 			page 7


 111 0036 2C48     		ldr	r0, .L16+20
 112              	.LVL11:
 113 0038 FFF7FEFF 		bl	printf
 114              	.LVL12:
 236:Core/Src/freertos.c **** 			memset(BSPABoardReceiveInfo,0x00,BSPABoardRx_InfoLen);
 115              		.loc 1 236 0
 116 003c 2278     		ldrb	r2, [r4]	@ zero_extendqisi2
 117 003e 0021     		movs	r1, #0
 118 0040 2846     		mov	r0, r5
 119 0042 FFF7FEFF 		bl	memset
 120              	.LVL13:
 237:Core/Src/freertos.c **** 			BSPABoardRx_InfoLen = 0;
 121              		.loc 1 237 0
 122 0046 0023     		movs	r3, #0
 123 0048 2370     		strb	r3, [r4]
 124 004a 18E0     		b	.L7
 125              	.LVL14:
 126              	.L15:
 238:Core/Src/freertos.c **** 		}
 239:Core/Src/freertos.c **** 		
 240:Core/Src/freertos.c **** 		err = xSemaphoreTake(xScanBSPBBoardSemaphore, 5);
 241:Core/Src/freertos.c **** 		if(err == pdTRUE)
 242:Core/Src/freertos.c **** 		{
 243:Core/Src/freertos.c **** 			printf("BSPBBoardRx_Len = %03d\n %s\r\n",BSPBBoardRx_InfoLen,BSPBBoardReceiveInfo);
 127              		.loc 1 243 0
 128 004c 274D     		ldr	r5, .L16+24
 129 004e 284C     		ldr	r4, .L16+28
 130 0050 2A46     		mov	r2, r5
 131 0052 2178     		ldrb	r1, [r4]	@ zero_extendqisi2
 132 0054 2748     		ldr	r0, .L16+32
 133              	.LVL15:
 134 0056 FFF7FEFF 		bl	printf
 135              	.LVL16:
 244:Core/Src/freertos.c **** 			memset(BSPBBoardReceiveInfo,0x00,BSPBBoardRx_InfoLen);
 136              		.loc 1 244 0
 137 005a 2278     		ldrb	r2, [r4]	@ zero_extendqisi2
 138 005c 0021     		movs	r1, #0
 139 005e 2846     		mov	r0, r5
 140 0060 FFF7FEFF 		bl	memset
 141              	.LVL17:
 245:Core/Src/freertos.c **** 			BSPBBoardRx_InfoLen = 0;
 142              		.loc 1 245 0
 143 0064 0023     		movs	r3, #0
 144 0066 2370     		strb	r3, [r4]
 145 0068 12E0     		b	.L8
 146              	.LVL18:
 147              	.L9:
 246:Core/Src/freertos.c **** 		}
 247:Core/Src/freertos.c **** 		
 248:Core/Src/freertos.c **** 		err = xSemaphoreTake(xScanCoreBoardSemaphore, 5);//portMAX_DELAY);
 249:Core/Src/freertos.c **** 		if(err == pdTRUE)
 250:Core/Src/freertos.c **** 		{
 251:Core/Src/freertos.c **** 			printf("CoreBoardRx_Len = %03d\n %s\r\n",CoreBoardRx_InfoLen,CoreBoardReceiveInfo);
 252:Core/Src/freertos.c **** 			memset(CoreBoardReceiveInfo,0x00,CoreBoardRx_InfoLen);
 253:Core/Src/freertos.c **** 			CoreBoardRx_InfoLen = 0;
 254:Core/Src/freertos.c **** 		}
 255:Core/Src/freertos.c **** 
ARM GAS  C:\Users\bertz\AppData\Local\Temp\ccWftJE8.s 			page 8


 256:Core/Src/freertos.c **** 		if(err == pdFALSE)
 148              		.loc 1 256 0
 149 006a 54B3     		cbz	r4, .L13
 150              	.LVL19:
 151              	.L10:
 232:Core/Src/freertos.c **** 		if(err == pdTRUE)
 152              		.loc 1 232 0
 153 006c 0023     		movs	r3, #0
 154 006e 0522     		movs	r2, #5
 155 0070 1946     		mov	r1, r3
 156 0072 1848     		ldr	r0, .L16
 157 0074 0068     		ldr	r0, [r0]
 158 0076 FFF7FEFF 		bl	xQueueGenericReceive
 159              	.LVL20:
 233:Core/Src/freertos.c **** 		{
 160              		.loc 1 233 0
 161 007a 0128     		cmp	r0, #1
 162 007c D7D0     		beq	.L14
 163              	.LVL21:
 164              	.L7:
 240:Core/Src/freertos.c **** 		if(err == pdTRUE)
 165              		.loc 1 240 0
 166 007e 0023     		movs	r3, #0
 167 0080 0522     		movs	r2, #5
 168 0082 1946     		mov	r1, r3
 169 0084 1448     		ldr	r0, .L16+4
 170 0086 0068     		ldr	r0, [r0]
 171 0088 FFF7FEFF 		bl	xQueueGenericReceive
 172              	.LVL22:
 241:Core/Src/freertos.c **** 		{
 173              		.loc 1 241 0
 174 008c 0128     		cmp	r0, #1
 175 008e DDD0     		beq	.L15
 176              	.LVL23:
 177              	.L8:
 248:Core/Src/freertos.c **** 		if(err == pdTRUE)
 178              		.loc 1 248 0
 179 0090 0023     		movs	r3, #0
 180 0092 0522     		movs	r2, #5
 181 0094 1946     		mov	r1, r3
 182 0096 1148     		ldr	r0, .L16+8
 183 0098 0068     		ldr	r0, [r0]
 184 009a FFF7FEFF 		bl	xQueueGenericReceive
 185              	.LVL24:
 186 009e 0446     		mov	r4, r0
 187              	.LVL25:
 249:Core/Src/freertos.c **** 		{
 188              		.loc 1 249 0
 189 00a0 0128     		cmp	r0, #1
 190 00a2 E2D1     		bne	.L9
 251:Core/Src/freertos.c **** 			memset(CoreBoardReceiveInfo,0x00,CoreBoardRx_InfoLen);
 191              		.loc 1 251 0
 192 00a4 144E     		ldr	r6, .L16+36
 193 00a6 154D     		ldr	r5, .L16+40
 194 00a8 3246     		mov	r2, r6
 195 00aa 2978     		ldrb	r1, [r5]	@ zero_extendqisi2
 196 00ac 1448     		ldr	r0, .L16+44
ARM GAS  C:\Users\bertz\AppData\Local\Temp\ccWftJE8.s 			page 9


 197              	.LVL26:
 198 00ae FFF7FEFF 		bl	printf
 199              	.LVL27:
 252:Core/Src/freertos.c **** 			CoreBoardRx_InfoLen = 0;
 200              		.loc 1 252 0
 201 00b2 2A78     		ldrb	r2, [r5]	@ zero_extendqisi2
 202 00b4 0021     		movs	r1, #0
 203 00b6 3046     		mov	r0, r6
 204 00b8 FFF7FEFF 		bl	memset
 205              	.LVL28:
 253:Core/Src/freertos.c **** 		}
 206              		.loc 1 253 0
 207 00bc 0023     		movs	r3, #0
 208 00be 2B70     		strb	r3, [r5]
 209 00c0 D3E7     		b	.L9
 210              	.L13:
 257:Core/Src/freertos.c **** 		{
 258:Core/Src/freertos.c **** 			vTaskDelay(500);
 211              		.loc 1 258 0
 212 00c2 4FF4FA70 		mov	r0, #500
 213 00c6 FFF7FEFF 		bl	vTaskDelay
 214              	.LVL29:
 259:Core/Src/freertos.c **** 			printf("Scan Uarts Task\r\n");
 215              		.loc 1 259 0
 216 00ca 0E48     		ldr	r0, .L16+48
 217 00cc FFF7FEFF 		bl	puts
 218              	.LVL30:
 219 00d0 CCE7     		b	.L10
 220              	.L17:
 221 00d2 00BF     		.align	2
 222              	.L16:
 223 00d4 00000000 		.word	xScanBSPABoardSemaphore
 224 00d8 00000000 		.word	xScanBSPBBoardSemaphore
 225 00dc 00000000 		.word	xScanCoreBoardSemaphore
 226 00e0 00000000 		.word	BSPABoardReceiveInfo
 227 00e4 00000000 		.word	BSPABoardRx_InfoLen
 228 00e8 00000000 		.word	.LC3
 229 00ec 00000000 		.word	BSPBBoardReceiveInfo
 230 00f0 00000000 		.word	BSPBBoardRx_InfoLen
 231 00f4 20000000 		.word	.LC4
 232 00f8 00000000 		.word	CoreBoardReceiveInfo
 233 00fc 00000000 		.word	CoreBoardRx_InfoLen
 234 0100 40000000 		.word	.LC5
 235 0104 60000000 		.word	.LC6
 236              		.cfi_endproc
 237              	.LFE13:
 239              		.section	.text.MX_FREERTOS_Init,"ax",%progbits
 240              		.align	1
 241              		.global	MX_FREERTOS_Init
 242              		.syntax unified
 243              		.thumb
 244              		.thumb_func
 245              		.fpu softvfp
 247              	MX_FREERTOS_Init:
 248              	.LFB8:
 106:Core/Src/freertos.c ****   /* USER CODE BEGIN Init */
 249              		.loc 1 106 0
ARM GAS  C:\Users\bertz\AppData\Local\Temp\ccWftJE8.s 			page 10


 250              		.cfi_startproc
 251              		@ args = 0, pretend = 0, frame = 24
 252              		@ frame_needed = 0, uses_anonymous_args = 0
 253 0000 30B5     		push	{r4, r5, lr}
 254              	.LCFI2:
 255              		.cfi_def_cfa_offset 12
 256              		.cfi_offset 4, -12
 257              		.cfi_offset 5, -8
 258              		.cfi_offset 14, -4
 259 0002 89B0     		sub	sp, sp, #36
 260              	.LCFI3:
 261              		.cfi_def_cfa_offset 48
 117:Core/Src/freertos.c ****   xScanBSPABoardSemaphore = xSemaphoreCreateBinary();
 262              		.loc 1 117 0
 263 0004 0322     		movs	r2, #3
 264 0006 0021     		movs	r1, #0
 265 0008 0120     		movs	r0, #1
 266 000a FFF7FEFF 		bl	xQueueGenericCreate
 267              	.LVL31:
 268 000e 184B     		ldr	r3, .L22
 269 0010 1860     		str	r0, [r3]
 118:Core/Src/freertos.c ****   xScanBSPBBoardSemaphore = xSemaphoreCreateBinary();
 270              		.loc 1 118 0
 271 0012 0322     		movs	r2, #3
 272 0014 0021     		movs	r1, #0
 273 0016 0120     		movs	r0, #1
 274 0018 FFF7FEFF 		bl	xQueueGenericCreate
 275              	.LVL32:
 276 001c 154B     		ldr	r3, .L22+4
 277 001e 1860     		str	r0, [r3]
 119:Core/Src/freertos.c ****   /* USER CODE END RTOS_SEMAPHORES */
 278              		.loc 1 119 0
 279 0020 0322     		movs	r2, #3
 280 0022 0021     		movs	r1, #0
 281 0024 0120     		movs	r0, #1
 282 0026 FFF7FEFF 		bl	xQueueGenericCreate
 283              	.LVL33:
 284 002a 134B     		ldr	r3, .L22+8
 285 002c 1860     		str	r0, [r3]
 128:Core/Src/freertos.c ****   defaultTaskHandle = osThreadCreate(osThread(defaultTask), NULL);
 286              		.loc 1 128 0
 287 002e 03AC     		add	r4, sp, #12
 288 0030 124D     		ldr	r5, .L22+12
 289 0032 0FCD     		ldmia	r5!, {r0, r1, r2, r3}
 290 0034 0FC4     		stmia	r4!, {r0, r1, r2, r3}
 291 0036 2B68     		ldr	r3, [r5]
 292 0038 2360     		str	r3, [r4]
 129:Core/Src/freertos.c **** 
 293              		.loc 1 129 0
 294 003a 0021     		movs	r1, #0
 295 003c 03A8     		add	r0, sp, #12
 296 003e FFF7FEFF 		bl	osThreadCreate
 297              	.LVL34:
 298 0042 0F4B     		ldr	r3, .L22+16
 299 0044 1860     		str	r0, [r3]
 157:Core/Src/freertos.c ****   				(const char *)"scanUartsTask",
 300              		.loc 1 157 0
ARM GAS  C:\Users\bertz\AppData\Local\Temp\ccWftJE8.s 			page 11


 301 0046 0F4B     		ldr	r3, .L22+20
 302 0048 0193     		str	r3, [sp, #4]
 303 004a 0123     		movs	r3, #1
 304 004c 0093     		str	r3, [sp]
 305 004e 0023     		movs	r3, #0
 306 0050 4FF48072 		mov	r2, #256
 307 0054 0C49     		ldr	r1, .L22+24
 308 0056 0D48     		ldr	r0, .L22+28
 309 0058 FFF7FEFF 		bl	xTaskCreate
 310              	.LVL35:
 311 005c 0C4B     		ldr	r3, .L22+32
 312 005e 1860     		str	r0, [r3]
 163:Core/Src/freertos.c ****   {
 313              		.loc 1 163 0
 314 0060 0128     		cmp	r0, #1
 315 0062 01D0     		beq	.L21
 316              	.L18:
 183:Core/Src/freertos.c **** 
 317              		.loc 1 183 0
 318 0064 09B0     		add	sp, sp, #36
 319              	.LCFI4:
 320              		.cfi_remember_state
 321              		.cfi_def_cfa_offset 12
 322              		@ sp needed
 323 0066 30BD     		pop	{r4, r5, pc}
 324              	.L21:
 325              	.LCFI5:
 326              		.cfi_restore_state
 165:Core/Src/freertos.c ****   }
 327              		.loc 1 165 0
 328 0068 0A48     		ldr	r0, .L22+36
 329 006a FFF7FEFF 		bl	puts
 330              	.LVL36:
 183:Core/Src/freertos.c **** 
 331              		.loc 1 183 0
 332 006e F9E7     		b	.L18
 333              	.L23:
 334              		.align	2
 335              	.L22:
 336 0070 00000000 		.word	xScanCoreBoardSemaphore
 337 0074 00000000 		.word	xScanBSPABoardSemaphore
 338 0078 00000000 		.word	xScanBSPBBoardSemaphore
 339 007c 00000000 		.word	.LANCHOR0
 340 0080 00000000 		.word	defaultTaskHandle
 341 0084 00000000 		.word	scanUartsTaskHandle
 342 0088 00000000 		.word	.LC8
 343 008c 00000000 		.word	StartScanUsartsTask
 344 0090 00000000 		.word	tReturn
 345 0094 10000000 		.word	.LC9
 346              		.cfi_endproc
 347              	.LFE8:
 349              		.section	.text.vApplicationIdleHook,"ax",%progbits
 350              		.align	1
 351              		.global	vApplicationIdleHook
 352              		.syntax unified
 353              		.thumb
 354              		.thumb_func
ARM GAS  C:\Users\bertz\AppData\Local\Temp\ccWftJE8.s 			page 12


 355              		.fpu softvfp
 357              	vApplicationIdleHook:
 358              	.LFB10:
 201:Core/Src/freertos.c **** 	for(;;)
 359              		.loc 1 201 0
 360              		.cfi_startproc
 361              		@ Volatile: function does not return.
 362              		@ args = 0, pretend = 0, frame = 0
 363              		@ frame_needed = 0, uses_anonymous_args = 0
 364              		@ link register save eliminated.
 365              	.L25:
 366 0000 FEE7     		b	.L25
 367              		.cfi_endproc
 368              	.LFE10:
 370              		.section	.text.StartScanBSPATask,"ax",%progbits
 371              		.align	1
 372              		.global	StartScanBSPATask
 373              		.syntax unified
 374              		.thumb
 375              		.thumb_func
 376              		.fpu softvfp
 378              	StartScanBSPATask:
 379              	.LFB11:
 209:Core/Src/freertos.c **** 	for(;;)
 380              		.loc 1 209 0
 381              		.cfi_startproc
 382              		@ Volatile: function does not return.
 383              		@ args = 0, pretend = 0, frame = 0
 384              		@ frame_needed = 0, uses_anonymous_args = 0
 385              	.LVL37:
 209:Core/Src/freertos.c **** 	for(;;)
 386              		.loc 1 209 0
 387 0000 08B5     		push	{r3, lr}
 388              	.LCFI6:
 389              		.cfi_def_cfa_offset 8
 390              		.cfi_offset 3, -8
 391              		.cfi_offset 14, -4
 392              	.LVL38:
 393              	.L27:
 212:Core/Src/freertos.c **** 		printf("ScanBSPA \r\n");
 394              		.loc 1 212 0 discriminator 1
 395 0002 4FF4FA70 		mov	r0, #500
 396 0006 FFF7FEFF 		bl	vTaskDelay
 397              	.LVL39:
 213:Core/Src/freertos.c **** 	}
 398              		.loc 1 213 0 discriminator 1
 399 000a 0248     		ldr	r0, .L29
 400 000c FFF7FEFF 		bl	puts
 401              	.LVL40:
 402 0010 F7E7     		b	.L27
 403              	.L30:
 404 0012 00BF     		.align	2
 405              	.L29:
 406 0014 00000000 		.word	.LC10
 407              		.cfi_endproc
 408              	.LFE11:
 410              		.section	.text.StartScanBSPBTask,"ax",%progbits
ARM GAS  C:\Users\bertz\AppData\Local\Temp\ccWftJE8.s 			page 13


 411              		.align	1
 412              		.global	StartScanBSPBTask
 413              		.syntax unified
 414              		.thumb
 415              		.thumb_func
 416              		.fpu softvfp
 418              	StartScanBSPBTask:
 419              	.LFB12:
 217:Core/Src/freertos.c **** 	for(;;)
 420              		.loc 1 217 0
 421              		.cfi_startproc
 422              		@ Volatile: function does not return.
 423              		@ args = 0, pretend = 0, frame = 0
 424              		@ frame_needed = 0, uses_anonymous_args = 0
 425              	.LVL41:
 426 0000 08B5     		push	{r3, lr}
 427              	.LCFI7:
 428              		.cfi_def_cfa_offset 8
 429              		.cfi_offset 3, -8
 430              		.cfi_offset 14, -4
 431              	.LVL42:
 432              	.L32:
 220:Core/Src/freertos.c **** 		printf("ScanBSPB \r\n");
 433              		.loc 1 220 0 discriminator 1
 434 0002 4FF4FA70 		mov	r0, #500
 435 0006 FFF7FEFF 		bl	vTaskDelay
 436              	.LVL43:
 221:Core/Src/freertos.c **** 	}
 437              		.loc 1 221 0 discriminator 1
 438 000a 0248     		ldr	r0, .L34
 439 000c FFF7FEFF 		bl	puts
 440              	.LVL44:
 441 0010 F7E7     		b	.L32
 442              	.L35:
 443 0012 00BF     		.align	2
 444              	.L34:
 445 0014 00000000 		.word	.LC11
 446              		.cfi_endproc
 447              	.LFE12:
 449              		.comm	tReturn,4,4
 450              		.comm	xScanCoreBoardSemaphore,4,4
 451              		.comm	xScanBSPBBoardSemaphore,4,4
 452              		.comm	xScanBSPABoardSemaphore,4,4
 453              		.comm	scanUartsTaskHandle,4,4
 454              		.comm	scanBSPBTaskHandle,4,4
 455              		.comm	scanBSPATaskHandle,4,4
 456              		.comm	defaultTaskHandle,4,4
 457              		.section	.rodata
 458              		.align	2
 459              		.set	.LANCHOR0,. + 0
 460              	.LC7:
 461 0000 00000000 		.word	.LC0
 462 0004 00000000 		.word	StartDefaultTask
 463 0008 0000     		.short	0
 464 000a 0000     		.space	2
 465 000c 01000000 		.word	1
 466 0010 40000000 		.word	64
ARM GAS  C:\Users\bertz\AppData\Local\Temp\ccWftJE8.s 			page 14


 467              		.section	.rodata.MX_FREERTOS_Init.str1.4,"aMS",%progbits,1
 468              		.align	2
 469              	.LC8:
 470 0000 7363616E 		.ascii	"scanUartsTask\000"
 470      55617274 
 470      73546173 
 470      6B00
 471 000e 0000     		.space	2
 472              	.LC9:
 473 0010 20536361 		.ascii	" Scan Core Board Task Create OK! \015\000"
 473      6E20436F 
 473      72652042 
 473      6F617264 
 473      20546173 
 474              		.section	.rodata.StartDefaultTask.str1.4,"aMS",%progbits,1
 475              		.align	2
 476              	.LC2:
 477 0000 57656C63 		.ascii	"Welcome to USE FreeRTOS \015\000"
 477      6F6D6520 
 477      746F2055 
 477      53452046 
 477      72656552 
 478              		.section	.rodata.StartScanBSPATask.str1.4,"aMS",%progbits,1
 479              		.align	2
 480              	.LC10:
 481 0000 5363616E 		.ascii	"ScanBSPA \015\000"
 481      42535041 
 481      200D00
 482              		.section	.rodata.StartScanBSPBTask.str1.4,"aMS",%progbits,1
 483              		.align	2
 484              	.LC11:
 485 0000 5363616E 		.ascii	"ScanBSPB \015\000"
 485      42535042 
 485      200D00
 486              		.section	.rodata.StartScanUsartsTask.str1.4,"aMS",%progbits,1
 487              		.align	2
 488              	.LC3:
 489 0000 42535041 		.ascii	"BSPABoardRx_Len = %03d\012 %s\015\012\000"
 489      426F6172 
 489      6452785F 
 489      4C656E20 
 489      3D202530 
 490 001d 000000   		.space	3
 491              	.LC4:
 492 0020 42535042 		.ascii	"BSPBBoardRx_Len = %03d\012 %s\015\012\000"
 492      426F6172 
 492      6452785F 
 492      4C656E20 
 492      3D202530 
 493 003d 000000   		.space	3
 494              	.LC5:
 495 0040 436F7265 		.ascii	"CoreBoardRx_Len = %03d\012 %s\015\012\000"
 495      426F6172 
 495      6452785F 
 495      4C656E20 
 495      3D202530 
 496 005d 000000   		.space	3
ARM GAS  C:\Users\bertz\AppData\Local\Temp\ccWftJE8.s 			page 15


 497              	.LC6:
 498 0060 5363616E 		.ascii	"Scan Uarts Task\015\000"
 498      20556172 
 498      74732054 
 498      61736B0D 
 498      00
 499              		.section	.rodata.str1.4,"aMS",%progbits,1
 500              		.align	2
 501              	.LC0:
 502 0000 64656661 		.ascii	"defaultTask\000"
 502      756C7454 
 502      61736B00 
 503              		.text
 504              	.Letext0:
 505              		.file 2 "c:\\program files (x86)\\gnu tools arm embedded\\7 2018-q2-update\\arm-none-eabi\\include
 506              		.file 3 "c:\\program files (x86)\\gnu tools arm embedded\\7 2018-q2-update\\arm-none-eabi\\include
 507              		.file 4 "Middlewares/Third_Party/FreeRTOS/Source/include/projdefs.h"
 508              		.file 5 "Middlewares/Third_Party/FreeRTOS/Source/portable/GCC/ARM_CM3/portmacro.h"
 509              		.file 6 "Middlewares/Third_Party/FreeRTOS/Source/include/task.h"
 510              		.file 7 "Middlewares/Third_Party/FreeRTOS/Source/include/queue.h"
 511              		.file 8 "Middlewares/Third_Party/FreeRTOS/Source/include/semphr.h"
 512              		.file 9 "Middlewares/Third_Party/FreeRTOS/Source/CMSIS_RTOS/cmsis_os.h"
 513              		.file 10 "c:\\program files (x86)\\gnu tools arm embedded\\7 2018-q2-update\\arm-none-eabi\\includ
 514              		.file 11 "c:\\program files (x86)\\gnu tools arm embedded\\7 2018-q2-update\\arm-none-eabi\\includ
 515              		.file 12 "c:\\program files (x86)\\gnu tools arm embedded\\7 2018-q2-update\\lib\\gcc\\arm-none-ea
 516              		.file 13 "c:\\program files (x86)\\gnu tools arm embedded\\7 2018-q2-update\\arm-none-eabi\\includ
 517              		.file 14 "Core/Inc/FreeRTOSConfig.h"
 518              		.file 15 "c:\\program files (x86)\\gnu tools arm embedded\\7 2018-q2-update\\arm-none-eabi\\includ
 519              		.file 16 "<built-in>"
ARM GAS  C:\Users\bertz\AppData\Local\Temp\ccWftJE8.s 			page 16

