ARM GAS  C:\Users\bertz\AppData\Local\Temp\cc77Ne1R.s 			page 1


   1              		.cpu cortex-m3
   2              		.eabi_attribute 20, 1
   3              		.eabi_attribute 21, 1
   4              		.eabi_attribute 23, 3
   5              		.eabi_attribute 24, 1
   6              		.eabi_attribute 25, 1
   7              		.eabi_attribute 26, 1
   8              		.eabi_attribute 30, 1
   9              		.eabi_attribute 34, 1
  10              		.eabi_attribute 18, 4
  11              		.file	"main.c"
  12              		.text
  13              	.Ltext0:
  14              		.cfi_sections	.debug_frame
  15              		.section	.text.MX_NVIC_Init,"ax",%progbits
  16              		.align	1
  17              		.syntax unified
  18              		.thumb
  19              		.thumb_func
  20              		.fpu softvfp
  22              	MX_NVIC_Init:
  23              	.LFB73:
  24              		.file 1 "Core/Src/main.c"
   1:Core/Src/main.c **** 
   2:Core/Src/main.c **** /**
   3:Core/Src/main.c ****   ******************************************************************************
   4:Core/Src/main.c ****   * @file           : main.c
   5:Core/Src/main.c ****   * @brief          : Main program body
   6:Core/Src/main.c ****   ******************************************************************************
   7:Core/Src/main.c ****   * This notice applies to any and all portions of this file
   8:Core/Src/main.c ****   * that are not between comment pairs USER CODE BEGIN and
   9:Core/Src/main.c ****   * USER CODE END. Other portions of this file, whether 
  10:Core/Src/main.c ****   * inserted by the user or by software development tools
  11:Core/Src/main.c ****   * are owned by their respective copyright owners.
  12:Core/Src/main.c ****   *
  13:Core/Src/main.c ****   * Copyright (c) 2018 STMicroelectronics International N.V. 
  14:Core/Src/main.c ****   * All rights reserved.
  15:Core/Src/main.c ****   *
  16:Core/Src/main.c ****   * Redistribution and use in source and binary forms, with or without 
  17:Core/Src/main.c ****   * modification, are permitted, provided that the following conditions are met:
  18:Core/Src/main.c ****   *
  19:Core/Src/main.c ****   * 1. Redistribution of source code must retain the above copyright notice, 
  20:Core/Src/main.c ****   *    this list of conditions and the following disclaimer.
  21:Core/Src/main.c ****   * 2. Redistributions in binary form must reproduce the above copyright notice,
  22:Core/Src/main.c ****   *    this list of conditions and the following disclaimer in the documentation
  23:Core/Src/main.c ****   *    and/or other materials provided with the distribution.
  24:Core/Src/main.c ****   * 3. Neither the name of STMicroelectronics nor the names of other 
  25:Core/Src/main.c ****   *    contributors to this software may be used to endorse or promote products 
  26:Core/Src/main.c ****   *    derived from this software without specific written permission.
  27:Core/Src/main.c ****   * 4. This software, including modifications and/or derivative works of this 
  28:Core/Src/main.c ****   *    software, must execute solely and exclusively on microcontroller or
  29:Core/Src/main.c ****   *    microprocessor devices manufactured by or for STMicroelectronics.
  30:Core/Src/main.c ****   * 5. Redistribution and use of this software other than as permitted under 
  31:Core/Src/main.c ****   *    this license is void and will automatically terminate your rights under 
  32:Core/Src/main.c ****   *    this license. 
  33:Core/Src/main.c ****   *
  34:Core/Src/main.c ****   * THIS SOFTWARE IS PROVIDED BY STMICROELECTRONICS AND CONTRIBUTORS "AS IS" 
ARM GAS  C:\Users\bertz\AppData\Local\Temp\cc77Ne1R.s 			page 2


  35:Core/Src/main.c ****   * AND ANY EXPRESS, IMPLIED OR STATUTORY WARRANTIES, INCLUDING, BUT NOT 
  36:Core/Src/main.c ****   * LIMITED TO, THE IMPLIED WARRANTIES OF MERCHANTABILITY, FITNESS FOR A 
  37:Core/Src/main.c ****   * PARTICULAR PURPOSE AND NON-INFRINGEMENT OF THIRD PARTY INTELLECTUAL PROPERTY
  38:Core/Src/main.c ****   * RIGHTS ARE DISCLAIMED TO THE FULLEST EXTENT PERMITTED BY LAW. IN NO EVENT 
  39:Core/Src/main.c ****   * SHALL STMICROELECTRONICS OR CONTRIBUTORS BE LIABLE FOR ANY DIRECT, INDIRECT,
  40:Core/Src/main.c ****   * INCIDENTAL, SPECIAL, EXEMPLARY, OR CONSEQUENTIAL DAMAGES (INCLUDING, BUT NOT
  41:Core/Src/main.c ****   * LIMITED TO, PROCUREMENT OF SUBSTITUTE GOODS OR SERVICES; LOSS OF USE, DATA, 
  42:Core/Src/main.c ****   * OR PROFITS; OR BUSINESS INTERRUPTION) HOWEVER CAUSED AND ON ANY THEORY OF 
  43:Core/Src/main.c ****   * LIABILITY, WHETHER IN CONTRACT, STRICT LIABILITY, OR TORT (INCLUDING 
  44:Core/Src/main.c ****   * NEGLIGENCE OR OTHERWISE) ARISING IN ANY WAY OUT OF THE USE OF THIS SOFTWARE,
  45:Core/Src/main.c ****   * EVEN IF ADVISED OF THE POSSIBILITY OF SUCH DAMAGE.
  46:Core/Src/main.c ****   *
  47:Core/Src/main.c ****   ******************************************************************************
  48:Core/Src/main.c ****   */
  49:Core/Src/main.c **** /* Includes ------------------------------------------------------------------*/
  50:Core/Src/main.c **** #include "main.h"
  51:Core/Src/main.c **** #include "stm32f1xx_hal.h"
  52:Core/Src/main.c **** #include "cmsis_os.h"
  53:Core/Src/main.c **** #include "adc.h"
  54:Core/Src/main.c **** #include "dma.h"
  55:Core/Src/main.c **** #include "spi.h"
  56:Core/Src/main.c **** #include "tim.h"
  57:Core/Src/main.c **** #include "usart.h"
  58:Core/Src/main.c **** #include "gpio.h"
  59:Core/Src/main.c **** 
  60:Core/Src/main.c **** /* USER CODE BEGIN Includes */
  61:Core/Src/main.c **** #include "string.h"
  62:Core/Src/main.c **** #include "stdio.h"
  63:Core/Src/main.c **** /* USER CODE END Includes */
  64:Core/Src/main.c **** 
  65:Core/Src/main.c **** /* Private variables ---------------------------------------------------------*/
  66:Core/Src/main.c **** 
  67:Core/Src/main.c **** /* USER CODE BEGIN PV */
  68:Core/Src/main.c **** /* Private variables ---------------------------------------------------------*/
  69:Core/Src/main.c **** 
  70:Core/Src/main.c **** /* USER CODE END PV */
  71:Core/Src/main.c **** 
  72:Core/Src/main.c **** /* Private function prototypes -----------------------------------------------*/
  73:Core/Src/main.c **** void SystemClock_Config(void);
  74:Core/Src/main.c **** void MX_FREERTOS_Init(void);
  75:Core/Src/main.c **** static void MX_NVIC_Init(void);
  76:Core/Src/main.c **** 
  77:Core/Src/main.c **** /* USER CODE BEGIN PFP */
  78:Core/Src/main.c **** /* Private function prototypes -----------------------------------------------*/
  79:Core/Src/main.c **** 
  80:Core/Src/main.c **** /* USER CODE END PFP */
  81:Core/Src/main.c **** 
  82:Core/Src/main.c **** /* USER CODE BEGIN 0 */
  83:Core/Src/main.c **** 
  84:Core/Src/main.c **** /* USER CODE END 0 */
  85:Core/Src/main.c **** 
  86:Core/Src/main.c **** /**
  87:Core/Src/main.c ****   * @brief  The application entry point.
  88:Core/Src/main.c ****   *
  89:Core/Src/main.c ****   * @retval None
  90:Core/Src/main.c ****   */
  91:Core/Src/main.c **** int main(void)
ARM GAS  C:\Users\bertz\AppData\Local\Temp\cc77Ne1R.s 			page 3


  92:Core/Src/main.c **** {
  93:Core/Src/main.c ****   /* USER CODE BEGIN 1 */
  94:Core/Src/main.c **** 
  95:Core/Src/main.c ****   /* USER CODE END 1 */
  96:Core/Src/main.c **** 
  97:Core/Src/main.c ****   /* MCU Configuration----------------------------------------------------------*/
  98:Core/Src/main.c **** 
  99:Core/Src/main.c ****   /* Reset of all peripherals, Initializes the Flash interface and the Systick. */
 100:Core/Src/main.c ****   HAL_Init();
 101:Core/Src/main.c **** 
 102:Core/Src/main.c ****   /* USER CODE BEGIN Init */
 103:Core/Src/main.c **** 
 104:Core/Src/main.c ****   /* USER CODE END Init */
 105:Core/Src/main.c **** 
 106:Core/Src/main.c ****   /* Configure the system clock */
 107:Core/Src/main.c ****   SystemClock_Config();
 108:Core/Src/main.c **** 
 109:Core/Src/main.c ****   /* USER CODE BEGIN SysInit */
 110:Core/Src/main.c **** 
 111:Core/Src/main.c ****   /* USER CODE END SysInit */
 112:Core/Src/main.c **** 
 113:Core/Src/main.c ****   /* Initialize all configured peripherals */
 114:Core/Src/main.c ****   MX_GPIO_Init();
 115:Core/Src/main.c ****   MX_DMA_Init();
 116:Core/Src/main.c ****   MX_USART1_UART_Init();
 117:Core/Src/main.c ****   MX_USART2_UART_Init();
 118:Core/Src/main.c ****   MX_USART3_UART_Init();
 119:Core/Src/main.c ****   MX_SPI1_Init();
 120:Core/Src/main.c ****   MX_ADC1_Init();
 121:Core/Src/main.c ****   MX_TIM3_Init();
 122:Core/Src/main.c ****   MX_TIM4_Init();
 123:Core/Src/main.c ****   MX_TIM5_Init();
 124:Core/Src/main.c **** 
 125:Core/Src/main.c ****   /* Initialize interrupts */
 126:Core/Src/main.c ****   MX_NVIC_Init();
 127:Core/Src/main.c ****   /* USER CODE BEGIN 2 */
 128:Core/Src/main.c ****   DS_CoreBoardProtocolInit();
 129:Core/Src/main.c ****   DS_BSPABoardProtocolInit();
 130:Core/Src/main.c ****   /* USER CODE END 2 */
 131:Core/Src/main.c **** 
 132:Core/Src/main.c ****   /* Call init function for freertos objects (in freertos.c) */
 133:Core/Src/main.c ****   MX_FREERTOS_Init();
 134:Core/Src/main.c **** 
 135:Core/Src/main.c ****   /* Start scheduler */
 136:Core/Src/main.c ****   osKernelStart();
 137:Core/Src/main.c ****   
 138:Core/Src/main.c ****   /* We should never get here as control is now taken by the scheduler */
 139:Core/Src/main.c **** 
 140:Core/Src/main.c ****   /* Infinite loop */
 141:Core/Src/main.c ****   /* USER CODE BEGIN WHILE */
 142:Core/Src/main.c ****   while (1)
 143:Core/Src/main.c ****   {
 144:Core/Src/main.c **** 
 145:Core/Src/main.c ****   /* USER CODE END WHILE */
 146:Core/Src/main.c **** 
 147:Core/Src/main.c ****   /* USER CODE BEGIN 3 */
 148:Core/Src/main.c **** 
ARM GAS  C:\Users\bertz\AppData\Local\Temp\cc77Ne1R.s 			page 4


 149:Core/Src/main.c ****   }
 150:Core/Src/main.c ****   /* USER CODE END 3 */
 151:Core/Src/main.c **** 
 152:Core/Src/main.c **** }
 153:Core/Src/main.c **** 
 154:Core/Src/main.c **** /**
 155:Core/Src/main.c ****   * @brief System Clock Configuration
 156:Core/Src/main.c ****   * @retval None
 157:Core/Src/main.c ****   */
 158:Core/Src/main.c **** void SystemClock_Config(void)
 159:Core/Src/main.c **** {
 160:Core/Src/main.c **** 
 161:Core/Src/main.c ****   RCC_OscInitTypeDef RCC_OscInitStruct;
 162:Core/Src/main.c ****   RCC_ClkInitTypeDef RCC_ClkInitStruct;
 163:Core/Src/main.c ****   RCC_PeriphCLKInitTypeDef PeriphClkInit;
 164:Core/Src/main.c **** 
 165:Core/Src/main.c ****     /**Initializes the CPU, AHB and APB busses clocks 
 166:Core/Src/main.c ****     */
 167:Core/Src/main.c ****   RCC_OscInitStruct.OscillatorType = RCC_OSCILLATORTYPE_HSE;
 168:Core/Src/main.c ****   RCC_OscInitStruct.HSEState = RCC_HSE_ON;
 169:Core/Src/main.c ****   RCC_OscInitStruct.HSEPredivValue = RCC_HSE_PREDIV_DIV1;
 170:Core/Src/main.c ****   RCC_OscInitStruct.HSIState = RCC_HSI_ON;
 171:Core/Src/main.c ****   RCC_OscInitStruct.PLL.PLLState = RCC_PLL_ON;
 172:Core/Src/main.c ****   RCC_OscInitStruct.PLL.PLLSource = RCC_PLLSOURCE_HSE;
 173:Core/Src/main.c ****   RCC_OscInitStruct.PLL.PLLMUL = RCC_PLL_MUL9;
 174:Core/Src/main.c ****   if (HAL_RCC_OscConfig(&RCC_OscInitStruct) != HAL_OK)
 175:Core/Src/main.c ****   {
 176:Core/Src/main.c ****     _Error_Handler(__FILE__, __LINE__);
 177:Core/Src/main.c ****   }
 178:Core/Src/main.c **** 
 179:Core/Src/main.c ****     /**Initializes the CPU, AHB and APB busses clocks 
 180:Core/Src/main.c ****     */
 181:Core/Src/main.c ****   RCC_ClkInitStruct.ClockType = RCC_CLOCKTYPE_HCLK|RCC_CLOCKTYPE_SYSCLK
 182:Core/Src/main.c ****                               |RCC_CLOCKTYPE_PCLK1|RCC_CLOCKTYPE_PCLK2;
 183:Core/Src/main.c ****   RCC_ClkInitStruct.SYSCLKSource = RCC_SYSCLKSOURCE_PLLCLK;
 184:Core/Src/main.c ****   RCC_ClkInitStruct.AHBCLKDivider = RCC_SYSCLK_DIV1;
 185:Core/Src/main.c ****   RCC_ClkInitStruct.APB1CLKDivider = RCC_HCLK_DIV2;
 186:Core/Src/main.c ****   RCC_ClkInitStruct.APB2CLKDivider = RCC_HCLK_DIV1;
 187:Core/Src/main.c **** 
 188:Core/Src/main.c ****   if (HAL_RCC_ClockConfig(&RCC_ClkInitStruct, FLASH_LATENCY_2) != HAL_OK)
 189:Core/Src/main.c ****   {
 190:Core/Src/main.c ****     _Error_Handler(__FILE__, __LINE__);
 191:Core/Src/main.c ****   }
 192:Core/Src/main.c **** 
 193:Core/Src/main.c ****   PeriphClkInit.PeriphClockSelection = RCC_PERIPHCLK_ADC;
 194:Core/Src/main.c ****   PeriphClkInit.AdcClockSelection = RCC_ADCPCLK2_DIV6;
 195:Core/Src/main.c ****   if (HAL_RCCEx_PeriphCLKConfig(&PeriphClkInit) != HAL_OK)
 196:Core/Src/main.c ****   {
 197:Core/Src/main.c ****     _Error_Handler(__FILE__, __LINE__);
 198:Core/Src/main.c ****   }
 199:Core/Src/main.c **** 
 200:Core/Src/main.c ****     /**Configure the Systick interrupt time 
 201:Core/Src/main.c ****     */
 202:Core/Src/main.c ****   HAL_SYSTICK_Config(HAL_RCC_GetHCLKFreq()/1000);
 203:Core/Src/main.c **** 
 204:Core/Src/main.c ****     /**Configure the Systick 
 205:Core/Src/main.c ****     */
ARM GAS  C:\Users\bertz\AppData\Local\Temp\cc77Ne1R.s 			page 5


 206:Core/Src/main.c ****   HAL_SYSTICK_CLKSourceConfig(SYSTICK_CLKSOURCE_HCLK);
 207:Core/Src/main.c **** 
 208:Core/Src/main.c ****   /* SysTick_IRQn interrupt configuration */
 209:Core/Src/main.c ****   HAL_NVIC_SetPriority(SysTick_IRQn, 15, 0);
 210:Core/Src/main.c **** }
 211:Core/Src/main.c **** 
 212:Core/Src/main.c **** /**
 213:Core/Src/main.c ****   * @brief NVIC Configuration.
 214:Core/Src/main.c ****   * @retval None
 215:Core/Src/main.c ****   */
 216:Core/Src/main.c **** static void MX_NVIC_Init(void)
 217:Core/Src/main.c **** {
  25              		.loc 1 217 0
  26              		.cfi_startproc
  27              		@ args = 0, pretend = 0, frame = 0
  28              		@ frame_needed = 0, uses_anonymous_args = 0
  29 0000 08B5     		push	{r3, lr}
  30              	.LCFI0:
  31              		.cfi_def_cfa_offset 8
  32              		.cfi_offset 3, -8
  33              		.cfi_offset 14, -4
 218:Core/Src/main.c ****   /* EXTI4_IRQn interrupt configuration */
 219:Core/Src/main.c ****   HAL_NVIC_SetPriority(EXTI4_IRQn, 5, 0);
  34              		.loc 1 219 0
  35 0002 0022     		movs	r2, #0
  36 0004 0521     		movs	r1, #5
  37 0006 0A20     		movs	r0, #10
  38 0008 FFF7FEFF 		bl	HAL_NVIC_SetPriority
  39              	.LVL0:
 220:Core/Src/main.c ****   HAL_NVIC_EnableIRQ(EXTI4_IRQn);
  40              		.loc 1 220 0
  41 000c 0A20     		movs	r0, #10
  42 000e FFF7FEFF 		bl	HAL_NVIC_EnableIRQ
  43              	.LVL1:
 221:Core/Src/main.c ****   /* TIM4_IRQn interrupt configuration */
 222:Core/Src/main.c ****   HAL_NVIC_SetPriority(TIM4_IRQn, 5, 0);
  44              		.loc 1 222 0
  45 0012 0022     		movs	r2, #0
  46 0014 0521     		movs	r1, #5
  47 0016 1E20     		movs	r0, #30
  48 0018 FFF7FEFF 		bl	HAL_NVIC_SetPriority
  49              	.LVL2:
 223:Core/Src/main.c ****   HAL_NVIC_EnableIRQ(TIM4_IRQn);
  50              		.loc 1 223 0
  51 001c 1E20     		movs	r0, #30
  52 001e FFF7FEFF 		bl	HAL_NVIC_EnableIRQ
  53              	.LVL3:
 224:Core/Src/main.c ****   /* TIM5_IRQn interrupt configuration */
 225:Core/Src/main.c ****   HAL_NVIC_SetPriority(TIM5_IRQn, 5, 0);
  54              		.loc 1 225 0
  55 0022 0022     		movs	r2, #0
  56 0024 0521     		movs	r1, #5
  57 0026 3220     		movs	r0, #50
  58 0028 FFF7FEFF 		bl	HAL_NVIC_SetPriority
  59              	.LVL4:
 226:Core/Src/main.c ****   HAL_NVIC_EnableIRQ(TIM5_IRQn);
  60              		.loc 1 226 0
ARM GAS  C:\Users\bertz\AppData\Local\Temp\cc77Ne1R.s 			page 6


  61 002c 3220     		movs	r0, #50
  62 002e FFF7FEFF 		bl	HAL_NVIC_EnableIRQ
  63              	.LVL5:
 227:Core/Src/main.c ****   /* USART1_IRQn interrupt configuration */
 228:Core/Src/main.c ****   HAL_NVIC_SetPriority(USART1_IRQn, 5, 0);
  64              		.loc 1 228 0
  65 0032 0022     		movs	r2, #0
  66 0034 0521     		movs	r1, #5
  67 0036 2520     		movs	r0, #37
  68 0038 FFF7FEFF 		bl	HAL_NVIC_SetPriority
  69              	.LVL6:
 229:Core/Src/main.c ****   HAL_NVIC_EnableIRQ(USART1_IRQn);
  70              		.loc 1 229 0
  71 003c 2520     		movs	r0, #37
  72 003e FFF7FEFF 		bl	HAL_NVIC_EnableIRQ
  73              	.LVL7:
 230:Core/Src/main.c ****   /* USART2_IRQn interrupt configuration */
 231:Core/Src/main.c ****   HAL_NVIC_SetPriority(USART2_IRQn, 5, 0);
  74              		.loc 1 231 0
  75 0042 0022     		movs	r2, #0
  76 0044 0521     		movs	r1, #5
  77 0046 2620     		movs	r0, #38
  78 0048 FFF7FEFF 		bl	HAL_NVIC_SetPriority
  79              	.LVL8:
 232:Core/Src/main.c ****   HAL_NVIC_EnableIRQ(USART2_IRQn);
  80              		.loc 1 232 0
  81 004c 2620     		movs	r0, #38
  82 004e FFF7FEFF 		bl	HAL_NVIC_EnableIRQ
  83              	.LVL9:
 233:Core/Src/main.c ****   /* USART3_IRQn interrupt configuration */
 234:Core/Src/main.c ****   HAL_NVIC_SetPriority(USART3_IRQn, 5, 0);
  84              		.loc 1 234 0
  85 0052 0022     		movs	r2, #0
  86 0054 0521     		movs	r1, #5
  87 0056 2720     		movs	r0, #39
  88 0058 FFF7FEFF 		bl	HAL_NVIC_SetPriority
  89              	.LVL10:
 235:Core/Src/main.c ****   HAL_NVIC_EnableIRQ(USART3_IRQn);
  90              		.loc 1 235 0
  91 005c 2720     		movs	r0, #39
  92 005e FFF7FEFF 		bl	HAL_NVIC_EnableIRQ
  93              	.LVL11:
 236:Core/Src/main.c ****   /* DMA1_Channel3_IRQn interrupt configuration */
 237:Core/Src/main.c ****   HAL_NVIC_SetPriority(DMA1_Channel3_IRQn, 5, 0);
  94              		.loc 1 237 0
  95 0062 0022     		movs	r2, #0
  96 0064 0521     		movs	r1, #5
  97 0066 0D20     		movs	r0, #13
  98 0068 FFF7FEFF 		bl	HAL_NVIC_SetPriority
  99              	.LVL12:
 238:Core/Src/main.c ****   HAL_NVIC_EnableIRQ(DMA1_Channel3_IRQn);
 100              		.loc 1 238 0
 101 006c 0D20     		movs	r0, #13
 102 006e FFF7FEFF 		bl	HAL_NVIC_EnableIRQ
 103              	.LVL13:
 239:Core/Src/main.c ****   /* DMA1_Channel5_IRQn interrupt configuration */
 240:Core/Src/main.c ****   HAL_NVIC_SetPriority(DMA1_Channel5_IRQn, 5, 0);
ARM GAS  C:\Users\bertz\AppData\Local\Temp\cc77Ne1R.s 			page 7


 104              		.loc 1 240 0
 105 0072 0022     		movs	r2, #0
 106 0074 0521     		movs	r1, #5
 107 0076 0F20     		movs	r0, #15
 108 0078 FFF7FEFF 		bl	HAL_NVIC_SetPriority
 109              	.LVL14:
 241:Core/Src/main.c ****   HAL_NVIC_EnableIRQ(DMA1_Channel5_IRQn);
 110              		.loc 1 241 0
 111 007c 0F20     		movs	r0, #15
 112 007e FFF7FEFF 		bl	HAL_NVIC_EnableIRQ
 113              	.LVL15:
 242:Core/Src/main.c ****   /* DMA1_Channel6_IRQn interrupt configuration */
 243:Core/Src/main.c ****   HAL_NVIC_SetPriority(DMA1_Channel6_IRQn, 5, 0);
 114              		.loc 1 243 0
 115 0082 0022     		movs	r2, #0
 116 0084 0521     		movs	r1, #5
 117 0086 1020     		movs	r0, #16
 118 0088 FFF7FEFF 		bl	HAL_NVIC_SetPriority
 119              	.LVL16:
 244:Core/Src/main.c ****   HAL_NVIC_EnableIRQ(DMA1_Channel6_IRQn);
 120              		.loc 1 244 0
 121 008c 1020     		movs	r0, #16
 122 008e FFF7FEFF 		bl	HAL_NVIC_EnableIRQ
 123              	.LVL17:
 245:Core/Src/main.c ****   /* DMA1_Channel1_IRQn interrupt configuration */
 246:Core/Src/main.c ****   HAL_NVIC_SetPriority(DMA1_Channel1_IRQn, 5, 0);
 124              		.loc 1 246 0
 125 0092 0022     		movs	r2, #0
 126 0094 0521     		movs	r1, #5
 127 0096 0B20     		movs	r0, #11
 128 0098 FFF7FEFF 		bl	HAL_NVIC_SetPriority
 129              	.LVL18:
 247:Core/Src/main.c ****   HAL_NVIC_EnableIRQ(DMA1_Channel1_IRQn);
 130              		.loc 1 247 0
 131 009c 0B20     		movs	r0, #11
 132 009e FFF7FEFF 		bl	HAL_NVIC_EnableIRQ
 133              	.LVL19:
 248:Core/Src/main.c **** }
 134              		.loc 1 248 0
 135 00a2 08BD     		pop	{r3, pc}
 136              		.cfi_endproc
 137              	.LFE73:
 139              		.section	.text.HAL_TIM_PeriodElapsedCallback,"ax",%progbits
 140              		.align	1
 141              		.global	HAL_TIM_PeriodElapsedCallback
 142              		.syntax unified
 143              		.thumb
 144              		.thumb_func
 145              		.fpu softvfp
 147              	HAL_TIM_PeriodElapsedCallback:
 148              	.LFB74:
 249:Core/Src/main.c **** 
 250:Core/Src/main.c **** /* USER CODE BEGIN 4 */
 251:Core/Src/main.c **** 
 252:Core/Src/main.c **** /* USER CODE END 4 */
 253:Core/Src/main.c **** 
 254:Core/Src/main.c **** /**
ARM GAS  C:\Users\bertz\AppData\Local\Temp\cc77Ne1R.s 			page 8


 255:Core/Src/main.c ****   * @brief  Period elapsed callback in non blocking mode
 256:Core/Src/main.c ****   * @note   This function is called  when TIM1 interrupt took place, inside
 257:Core/Src/main.c ****   * HAL_TIM_IRQHandler(). It makes a direct call to HAL_IncTick() to increment
 258:Core/Src/main.c ****   * a global variable "uwTick" used as application time base.
 259:Core/Src/main.c ****   * @param  htim : TIM handle
 260:Core/Src/main.c ****   * @retval None
 261:Core/Src/main.c ****   */
 262:Core/Src/main.c **** void HAL_TIM_PeriodElapsedCallback(TIM_HandleTypeDef *htim)
 263:Core/Src/main.c **** {
 149              		.loc 1 263 0
 150              		.cfi_startproc
 151              		@ args = 0, pretend = 0, frame = 0
 152              		@ frame_needed = 0, uses_anonymous_args = 0
 153              	.LVL20:
 154 0000 08B5     		push	{r3, lr}
 155              	.LCFI1:
 156              		.cfi_def_cfa_offset 8
 157              		.cfi_offset 3, -8
 158              		.cfi_offset 14, -4
 264:Core/Src/main.c ****   /* USER CODE BEGIN Callback 0 */
 265:Core/Src/main.c **** 
 266:Core/Src/main.c ****   /* USER CODE END Callback 0 */
 267:Core/Src/main.c ****   if (htim->Instance == TIM1) {
 159              		.loc 1 267 0
 160 0002 0268     		ldr	r2, [r0]
 161 0004 034B     		ldr	r3, .L7
 162 0006 9A42     		cmp	r2, r3
 163 0008 00D0     		beq	.L6
 164              	.LVL21:
 165              	.L3:
 268:Core/Src/main.c ****     HAL_IncTick();
 269:Core/Src/main.c ****   }
 270:Core/Src/main.c ****   /* USER CODE BEGIN Callback 1 */
 271:Core/Src/main.c **** 
 272:Core/Src/main.c ****   /* USER CODE END Callback 1 */
 273:Core/Src/main.c **** }
 166              		.loc 1 273 0
 167 000a 08BD     		pop	{r3, pc}
 168              	.LVL22:
 169              	.L6:
 268:Core/Src/main.c ****     HAL_IncTick();
 170              		.loc 1 268 0
 171 000c FFF7FEFF 		bl	HAL_IncTick
 172              	.LVL23:
 173              		.loc 1 273 0
 174 0010 FBE7     		b	.L3
 175              	.L8:
 176 0012 00BF     		.align	2
 177              	.L7:
 178 0014 002C0140 		.word	1073818624
 179              		.cfi_endproc
 180              	.LFE74:
 182              		.section	.text._Error_Handler,"ax",%progbits
 183              		.align	1
 184              		.global	_Error_Handler
 185              		.syntax unified
 186              		.thumb
ARM GAS  C:\Users\bertz\AppData\Local\Temp\cc77Ne1R.s 			page 9


 187              		.thumb_func
 188              		.fpu softvfp
 190              	_Error_Handler:
 191              	.LFB75:
 274:Core/Src/main.c **** 
 275:Core/Src/main.c **** /**
 276:Core/Src/main.c ****   * @brief  This function is executed in case of error occurrence.
 277:Core/Src/main.c ****   * @param  file: The file name as string.
 278:Core/Src/main.c ****   * @param  line: The line in file as a number.
 279:Core/Src/main.c ****   * @retval None
 280:Core/Src/main.c ****   */
 281:Core/Src/main.c **** void _Error_Handler(char *file, int line)
 282:Core/Src/main.c **** {
 192              		.loc 1 282 0
 193              		.cfi_startproc
 194              		@ Volatile: function does not return.
 195              		@ args = 0, pretend = 0, frame = 0
 196              		@ frame_needed = 0, uses_anonymous_args = 0
 197              		@ link register save eliminated.
 198              	.LVL24:
 199              	.L10:
 200 0000 FEE7     		b	.L10
 201              		.cfi_endproc
 202              	.LFE75:
 204              		.section	.text.SystemClock_Config,"ax",%progbits
 205              		.align	1
 206              		.global	SystemClock_Config
 207              		.syntax unified
 208              		.thumb
 209              		.thumb_func
 210              		.fpu softvfp
 212              	SystemClock_Config:
 213              	.LFB72:
 159:Core/Src/main.c **** 
 214              		.loc 1 159 0
 215              		.cfi_startproc
 216              		@ args = 0, pretend = 0, frame = 88
 217              		@ frame_needed = 0, uses_anonymous_args = 0
 159:Core/Src/main.c **** 
 218              		.loc 1 159 0
 219 0000 00B5     		push	{lr}
 220              	.LCFI2:
 221              		.cfi_def_cfa_offset 4
 222              		.cfi_offset 14, -4
 223 0002 97B0     		sub	sp, sp, #92
 224              	.LCFI3:
 225              		.cfi_def_cfa_offset 96
 167:Core/Src/main.c ****   RCC_OscInitStruct.HSEState = RCC_HSE_ON;
 226              		.loc 1 167 0
 227 0004 0122     		movs	r2, #1
 228 0006 0C92     		str	r2, [sp, #48]
 168:Core/Src/main.c ****   RCC_OscInitStruct.HSEPredivValue = RCC_HSE_PREDIV_DIV1;
 229              		.loc 1 168 0
 230 0008 4FF48033 		mov	r3, #65536
 231 000c 0D93     		str	r3, [sp, #52]
 169:Core/Src/main.c ****   RCC_OscInitStruct.HSIState = RCC_HSI_ON;
 232              		.loc 1 169 0
ARM GAS  C:\Users\bertz\AppData\Local\Temp\cc77Ne1R.s 			page 10


 233 000e 0021     		movs	r1, #0
 234 0010 0E91     		str	r1, [sp, #56]
 170:Core/Src/main.c ****   RCC_OscInitStruct.PLL.PLLState = RCC_PLL_ON;
 235              		.loc 1 170 0
 236 0012 1092     		str	r2, [sp, #64]
 171:Core/Src/main.c ****   RCC_OscInitStruct.PLL.PLLSource = RCC_PLLSOURCE_HSE;
 237              		.loc 1 171 0
 238 0014 0222     		movs	r2, #2
 239 0016 1392     		str	r2, [sp, #76]
 172:Core/Src/main.c ****   RCC_OscInitStruct.PLL.PLLMUL = RCC_PLL_MUL9;
 240              		.loc 1 172 0
 241 0018 1493     		str	r3, [sp, #80]
 173:Core/Src/main.c ****   if (HAL_RCC_OscConfig(&RCC_OscInitStruct) != HAL_OK)
 242              		.loc 1 173 0
 243 001a 4FF4E013 		mov	r3, #1835008
 244 001e 1593     		str	r3, [sp, #84]
 174:Core/Src/main.c ****   {
 245              		.loc 1 174 0
 246 0020 0CA8     		add	r0, sp, #48
 247 0022 FFF7FEFF 		bl	HAL_RCC_OscConfig
 248              	.LVL25:
 249 0026 50BB     		cbnz	r0, .L16
 181:Core/Src/main.c ****                               |RCC_CLOCKTYPE_PCLK1|RCC_CLOCKTYPE_PCLK2;
 250              		.loc 1 181 0
 251 0028 0F23     		movs	r3, #15
 252 002a 0793     		str	r3, [sp, #28]
 183:Core/Src/main.c ****   RCC_ClkInitStruct.AHBCLKDivider = RCC_SYSCLK_DIV1;
 253              		.loc 1 183 0
 254 002c 0221     		movs	r1, #2
 255 002e 0891     		str	r1, [sp, #32]
 184:Core/Src/main.c ****   RCC_ClkInitStruct.APB1CLKDivider = RCC_HCLK_DIV2;
 256              		.loc 1 184 0
 257 0030 0023     		movs	r3, #0
 258 0032 0993     		str	r3, [sp, #36]
 185:Core/Src/main.c ****   RCC_ClkInitStruct.APB2CLKDivider = RCC_HCLK_DIV1;
 259              		.loc 1 185 0
 260 0034 4FF48062 		mov	r2, #1024
 261 0038 0A92     		str	r2, [sp, #40]
 186:Core/Src/main.c **** 
 262              		.loc 1 186 0
 263 003a 0B93     		str	r3, [sp, #44]
 188:Core/Src/main.c ****   {
 264              		.loc 1 188 0
 265 003c 07A8     		add	r0, sp, #28
 266 003e FFF7FEFF 		bl	HAL_RCC_ClockConfig
 267              	.LVL26:
 268 0042 00BB     		cbnz	r0, .L17
 193:Core/Src/main.c ****   PeriphClkInit.AdcClockSelection = RCC_ADCPCLK2_DIV6;
 269              		.loc 1 193 0
 270 0044 0223     		movs	r3, #2
 271 0046 0193     		str	r3, [sp, #4]
 194:Core/Src/main.c ****   if (HAL_RCCEx_PeriphCLKConfig(&PeriphClkInit) != HAL_OK)
 272              		.loc 1 194 0
 273 0048 4FF40043 		mov	r3, #32768
 274 004c 0393     		str	r3, [sp, #12]
 195:Core/Src/main.c ****   {
 275              		.loc 1 195 0
ARM GAS  C:\Users\bertz\AppData\Local\Temp\cc77Ne1R.s 			page 11


 276 004e 01A8     		add	r0, sp, #4
 277 0050 FFF7FEFF 		bl	HAL_RCCEx_PeriphCLKConfig
 278              	.LVL27:
 279 0054 D8B9     		cbnz	r0, .L18
 202:Core/Src/main.c **** 
 280              		.loc 1 202 0
 281 0056 FFF7FEFF 		bl	HAL_RCC_GetHCLKFreq
 282              	.LVL28:
 283 005a 0F4B     		ldr	r3, .L19
 284 005c A3FB0030 		umull	r3, r0, r3, r0
 285 0060 8009     		lsrs	r0, r0, #6
 286 0062 FFF7FEFF 		bl	HAL_SYSTICK_Config
 287              	.LVL29:
 206:Core/Src/main.c **** 
 288              		.loc 1 206 0
 289 0066 0420     		movs	r0, #4
 290 0068 FFF7FEFF 		bl	HAL_SYSTICK_CLKSourceConfig
 291              	.LVL30:
 209:Core/Src/main.c **** }
 292              		.loc 1 209 0
 293 006c 0022     		movs	r2, #0
 294 006e 0F21     		movs	r1, #15
 295 0070 4FF0FF30 		mov	r0, #-1
 296 0074 FFF7FEFF 		bl	HAL_NVIC_SetPriority
 297              	.LVL31:
 210:Core/Src/main.c **** 
 298              		.loc 1 210 0
 299 0078 17B0     		add	sp, sp, #92
 300              	.LCFI4:
 301              		.cfi_remember_state
 302              		.cfi_def_cfa_offset 4
 303              		@ sp needed
 304 007a 5DF804FB 		ldr	pc, [sp], #4
 305              	.L16:
 306              	.LCFI5:
 307              		.cfi_restore_state
 176:Core/Src/main.c ****   }
 308              		.loc 1 176 0
 309 007e B021     		movs	r1, #176
 310 0080 0648     		ldr	r0, .L19+4
 311 0082 FFF7FEFF 		bl	_Error_Handler
 312              	.LVL32:
 313              	.L17:
 190:Core/Src/main.c ****   }
 314              		.loc 1 190 0
 315 0086 BE21     		movs	r1, #190
 316 0088 0448     		ldr	r0, .L19+4
 317 008a FFF7FEFF 		bl	_Error_Handler
 318              	.LVL33:
 319              	.L18:
 197:Core/Src/main.c ****   }
 320              		.loc 1 197 0
 321 008e C521     		movs	r1, #197
 322 0090 0248     		ldr	r0, .L19+4
 323 0092 FFF7FEFF 		bl	_Error_Handler
 324              	.LVL34:
 325              	.L20:
ARM GAS  C:\Users\bertz\AppData\Local\Temp\cc77Ne1R.s 			page 12


 326 0096 00BF     		.align	2
 327              	.L19:
 328 0098 D34D6210 		.word	274877907
 329 009c 00000000 		.word	.LC0
 330              		.cfi_endproc
 331              	.LFE72:
 333              		.section	.text.main,"ax",%progbits
 334              		.align	1
 335              		.global	main
 336              		.syntax unified
 337              		.thumb
 338              		.thumb_func
 339              		.fpu softvfp
 341              	main:
 342              	.LFB71:
  92:Core/Src/main.c ****   /* USER CODE BEGIN 1 */
 343              		.loc 1 92 0
 344              		.cfi_startproc
 345              		@ Volatile: function does not return.
 346              		@ args = 0, pretend = 0, frame = 0
 347              		@ frame_needed = 0, uses_anonymous_args = 0
 348 0000 08B5     		push	{r3, lr}
 349              	.LCFI6:
 350              		.cfi_def_cfa_offset 8
 351              		.cfi_offset 3, -8
 352              		.cfi_offset 14, -4
 100:Core/Src/main.c **** 
 353              		.loc 1 100 0
 354 0002 FFF7FEFF 		bl	HAL_Init
 355              	.LVL35:
 107:Core/Src/main.c **** 
 356              		.loc 1 107 0
 357 0006 FFF7FEFF 		bl	SystemClock_Config
 358              	.LVL36:
 114:Core/Src/main.c ****   MX_DMA_Init();
 359              		.loc 1 114 0
 360 000a FFF7FEFF 		bl	MX_GPIO_Init
 361              	.LVL37:
 115:Core/Src/main.c ****   MX_USART1_UART_Init();
 362              		.loc 1 115 0
 363 000e FFF7FEFF 		bl	MX_DMA_Init
 364              	.LVL38:
 116:Core/Src/main.c ****   MX_USART2_UART_Init();
 365              		.loc 1 116 0
 366 0012 FFF7FEFF 		bl	MX_USART1_UART_Init
 367              	.LVL39:
 117:Core/Src/main.c ****   MX_USART3_UART_Init();
 368              		.loc 1 117 0
 369 0016 FFF7FEFF 		bl	MX_USART2_UART_Init
 370              	.LVL40:
 118:Core/Src/main.c ****   MX_SPI1_Init();
 371              		.loc 1 118 0
 372 001a FFF7FEFF 		bl	MX_USART3_UART_Init
 373              	.LVL41:
 119:Core/Src/main.c ****   MX_ADC1_Init();
 374              		.loc 1 119 0
 375 001e FFF7FEFF 		bl	MX_SPI1_Init
ARM GAS  C:\Users\bertz\AppData\Local\Temp\cc77Ne1R.s 			page 13


 376              	.LVL42:
 120:Core/Src/main.c ****   MX_TIM3_Init();
 377              		.loc 1 120 0
 378 0022 FFF7FEFF 		bl	MX_ADC1_Init
 379              	.LVL43:
 121:Core/Src/main.c ****   MX_TIM4_Init();
 380              		.loc 1 121 0
 381 0026 FFF7FEFF 		bl	MX_TIM3_Init
 382              	.LVL44:
 122:Core/Src/main.c ****   MX_TIM5_Init();
 383              		.loc 1 122 0
 384 002a FFF7FEFF 		bl	MX_TIM4_Init
 385              	.LVL45:
 123:Core/Src/main.c **** 
 386              		.loc 1 123 0
 387 002e FFF7FEFF 		bl	MX_TIM5_Init
 388              	.LVL46:
 126:Core/Src/main.c ****   /* USER CODE BEGIN 2 */
 389              		.loc 1 126 0
 390 0032 FFF7FEFF 		bl	MX_NVIC_Init
 391              	.LVL47:
 128:Core/Src/main.c ****   DS_BSPABoardProtocolInit();
 392              		.loc 1 128 0
 393 0036 FFF7FEFF 		bl	DS_CoreBoardProtocolInit
 394              	.LVL48:
 129:Core/Src/main.c ****   /* USER CODE END 2 */
 395              		.loc 1 129 0
 396 003a FFF7FEFF 		bl	DS_BSPABoardProtocolInit
 397              	.LVL49:
 133:Core/Src/main.c **** 
 398              		.loc 1 133 0
 399 003e FFF7FEFF 		bl	MX_FREERTOS_Init
 400              	.LVL50:
 136:Core/Src/main.c ****   
 401              		.loc 1 136 0
 402 0042 FFF7FEFF 		bl	osKernelStart
 403              	.LVL51:
 404              	.L22:
 405 0046 FEE7     		b	.L22
 406              		.cfi_endproc
 407              	.LFE71:
 409              		.section	.rodata.SystemClock_Config.str1.4,"aMS",%progbits,1
 410              		.align	2
 411              	.LC0:
 412 0000 436F7265 		.ascii	"Core/Src/main.c\000"
 412      2F537263 
 412      2F6D6169 
 412      6E2E6300 
 413              		.text
 414              	.Letext0:
 415              		.file 2 "c:\\program files (x86)\\gnu tools arm embedded\\7 2018-q2-update\\arm-none-eabi\\include
 416              		.file 3 "c:\\program files (x86)\\gnu tools arm embedded\\7 2018-q2-update\\arm-none-eabi\\include
 417              		.file 4 "Drivers/CMSIS/Include/core_cm3.h"
 418              		.file 5 "Drivers/CMSIS/Device/ST/STM32F1xx/Include/system_stm32f1xx.h"
 419              		.file 6 "Drivers/CMSIS/Device/ST/STM32F1xx/Include/stm32f103xe.h"
 420              		.file 7 "c:\\program files (x86)\\gnu tools arm embedded\\7 2018-q2-update\\arm-none-eabi\\include
 421              		.file 8 "c:\\program files (x86)\\gnu tools arm embedded\\7 2018-q2-update\\arm-none-eabi\\include
ARM GAS  C:\Users\bertz\AppData\Local\Temp\cc77Ne1R.s 			page 14


 422              		.file 9 "c:\\program files (x86)\\gnu tools arm embedded\\7 2018-q2-update\\lib\\gcc\\arm-none-eab
 423              		.file 10 "c:\\program files (x86)\\gnu tools arm embedded\\7 2018-q2-update\\arm-none-eabi\\includ
 424              		.file 11 "Drivers/STM32F1xx_HAL_Driver/Inc/stm32f1xx_hal_def.h"
 425              		.file 12 "Drivers/STM32F1xx_HAL_Driver/Inc/stm32f1xx_hal_rcc.h"
 426              		.file 13 "Drivers/STM32F1xx_HAL_Driver/Inc/stm32f1xx_hal_rcc_ex.h"
 427              		.file 14 "Drivers/STM32F1xx_HAL_Driver/Inc/stm32f1xx_hal_dma.h"
 428              		.file 15 "Drivers/STM32F1xx_HAL_Driver/Inc/stm32f1xx_hal_adc.h"
 429              		.file 16 "Drivers/STM32F1xx_HAL_Driver/Inc/stm32f1xx_hal_spi.h"
 430              		.file 17 "Drivers/STM32F1xx_HAL_Driver/Inc/stm32f1xx_hal_tim.h"
 431              		.file 18 "Drivers/STM32F1xx_HAL_Driver/Inc/stm32f1xx_hal_uart.h"
 432              		.file 19 "Core/Inc/adc.h"
 433              		.file 20 "Core/Inc/spi.h"
 434              		.file 21 "Core/Inc/tim.h"
 435              		.file 22 "Core/Inc/usart.h"
 436              		.file 23 "Drivers/STM32F1xx_HAL_Driver/Inc/stm32f1xx_hal.h"
 437              		.file 24 "Drivers/STM32F1xx_HAL_Driver/Inc/stm32f1xx_hal_cortex.h"
 438              		.file 25 "Core/Inc/gpio.h"
 439              		.file 26 "Core/Inc/dma.h"
 440              		.file 27 "Middlewares/Third_Party/FreeRTOS/Source/CMSIS_RTOS/cmsis_os.h"
ARM GAS  C:\Users\bertz\AppData\Local\Temp\cc77Ne1R.s 			page 15

