ARM GAS  C:\Users\bertz\AppData\Local\Temp\ccAaqagT.s 			page 1


   1              		.cpu cortex-m3
   2              		.eabi_attribute 20, 1
   3              		.eabi_attribute 21, 1
   4              		.eabi_attribute 23, 3
   5              		.eabi_attribute 24, 1
   6              		.eabi_attribute 25, 1
   7              		.eabi_attribute 26, 1
   8              		.eabi_attribute 30, 1
   9              		.eabi_attribute 34, 1
  10              		.eabi_attribute 18, 4
  11              		.file	"stm32f1xx_it.c"
  12              		.text
  13              	.Ltext0:
  14              		.cfi_sections	.debug_frame
  15              		.section	.text.NMI_Handler,"ax",%progbits
  16              		.align	1
  17              		.global	NMI_Handler
  18              		.syntax unified
  19              		.thumb
  20              		.thumb_func
  21              		.fpu softvfp
  23              	NMI_Handler:
  24              	.LFB71:
  25              		.file 1 "Core/Src/stm32f1xx_it.c"
   1:Core/Src/stm32f1xx_it.c **** /**
   2:Core/Src/stm32f1xx_it.c ****   ******************************************************************************
   3:Core/Src/stm32f1xx_it.c ****   * @file    stm32f1xx_it.c
   4:Core/Src/stm32f1xx_it.c ****   * @brief   Interrupt Service Routines.
   5:Core/Src/stm32f1xx_it.c ****   ******************************************************************************
   6:Core/Src/stm32f1xx_it.c ****   *
   7:Core/Src/stm32f1xx_it.c ****   * COPYRIGHT(c) 2018 STMicroelectronics
   8:Core/Src/stm32f1xx_it.c ****   *
   9:Core/Src/stm32f1xx_it.c ****   * Redistribution and use in source and binary forms, with or without modification,
  10:Core/Src/stm32f1xx_it.c ****   * are permitted provided that the following conditions are met:
  11:Core/Src/stm32f1xx_it.c ****   *   1. Redistributions of source code must retain the above copyright notice,
  12:Core/Src/stm32f1xx_it.c ****   *      this list of conditions and the following disclaimer.
  13:Core/Src/stm32f1xx_it.c ****   *   2. Redistributions in binary form must reproduce the above copyright notice,
  14:Core/Src/stm32f1xx_it.c ****   *      this list of conditions and the following disclaimer in the documentation
  15:Core/Src/stm32f1xx_it.c ****   *      and/or other materials provided with the distribution.
  16:Core/Src/stm32f1xx_it.c ****   *   3. Neither the name of STMicroelectronics nor the names of its contributors
  17:Core/Src/stm32f1xx_it.c ****   *      may be used to endorse or promote products derived from this software
  18:Core/Src/stm32f1xx_it.c ****   *      without specific prior written permission.
  19:Core/Src/stm32f1xx_it.c ****   *
  20:Core/Src/stm32f1xx_it.c ****   * THIS SOFTWARE IS PROVIDED BY THE COPYRIGHT HOLDERS AND CONTRIBUTORS "AS IS"
  21:Core/Src/stm32f1xx_it.c ****   * AND ANY EXPRESS OR IMPLIED WARRANTIES, INCLUDING, BUT NOT LIMITED TO, THE
  22:Core/Src/stm32f1xx_it.c ****   * IMPLIED WARRANTIES OF MERCHANTABILITY AND FITNESS FOR A PARTICULAR PURPOSE ARE
  23:Core/Src/stm32f1xx_it.c ****   * DISCLAIMED. IN NO EVENT SHALL THE COPYRIGHT HOLDER OR CONTRIBUTORS BE LIABLE
  24:Core/Src/stm32f1xx_it.c ****   * FOR ANY DIRECT, INDIRECT, INCIDENTAL, SPECIAL, EXEMPLARY, OR CONSEQUENTIAL
  25:Core/Src/stm32f1xx_it.c ****   * DAMAGES (INCLUDING, BUT NOT LIMITED TO, PROCUREMENT OF SUBSTITUTE GOODS OR
  26:Core/Src/stm32f1xx_it.c ****   * SERVICES; LOSS OF USE, DATA, OR PROFITS; OR BUSINESS INTERRUPTION) HOWEVER
  27:Core/Src/stm32f1xx_it.c ****   * CAUSED AND ON ANY THEORY OF LIABILITY, WHETHER IN CONTRACT, STRICT LIABILITY,
  28:Core/Src/stm32f1xx_it.c ****   * OR TORT (INCLUDING NEGLIGENCE OR OTHERWISE) ARISING IN ANY WAY OUT OF THE USE
  29:Core/Src/stm32f1xx_it.c ****   * OF THIS SOFTWARE, EVEN IF ADVISED OF THE POSSIBILITY OF SUCH DAMAGE.
  30:Core/Src/stm32f1xx_it.c ****   *
  31:Core/Src/stm32f1xx_it.c ****   ******************************************************************************
  32:Core/Src/stm32f1xx_it.c ****   */
  33:Core/Src/stm32f1xx_it.c **** /* Includes ------------------------------------------------------------------*/
ARM GAS  C:\Users\bertz\AppData\Local\Temp\ccAaqagT.s 			page 2


  34:Core/Src/stm32f1xx_it.c **** #include "stm32f1xx_hal.h"
  35:Core/Src/stm32f1xx_it.c **** #include "stm32f1xx.h"
  36:Core/Src/stm32f1xx_it.c **** #include "stm32f1xx_it.h"
  37:Core/Src/stm32f1xx_it.c **** #include "cmsis_os.h"
  38:Core/Src/stm32f1xx_it.c **** 
  39:Core/Src/stm32f1xx_it.c **** /* USER CODE BEGIN 0 */
  40:Core/Src/stm32f1xx_it.c **** #include "usart.h"
  41:Core/Src/stm32f1xx_it.c **** #include "string.h"
  42:Core/Src/stm32f1xx_it.c **** 
  43:Core/Src/stm32f1xx_it.c **** extern xSemaphoreHandle xScanBSPABoardSemaphore;
  44:Core/Src/stm32f1xx_it.c **** extern xSemaphoreHandle xScanBSPBBoardSemaphore;
  45:Core/Src/stm32f1xx_it.c **** extern xSemaphoreHandle xScanCoreBoardSemaphore;
  46:Core/Src/stm32f1xx_it.c **** 
  47:Core/Src/stm32f1xx_it.c **** extern uint8_t 	CoreBoardReceiveBuff[RXBUFFERSIZE];
  48:Core/Src/stm32f1xx_it.c **** extern uint8_t 	CoreBoardReceiveInfo[RXBUFFERSIZE];
  49:Core/Src/stm32f1xx_it.c **** extern uint8_t	CoreBoardRx_BufferLen;
  50:Core/Src/stm32f1xx_it.c **** extern uint8_t 	CoreBoardRx_InfoLen;
  51:Core/Src/stm32f1xx_it.c **** extern uint8_t 	BSPABoardReceiveBuff[RXBUFFERSIZE];
  52:Core/Src/stm32f1xx_it.c **** extern uint8_t 	BSPABoardReceiveInfo[RXBUFFERSIZE];
  53:Core/Src/stm32f1xx_it.c **** extern uint8_t	BSPABoardRx_BufferLen;
  54:Core/Src/stm32f1xx_it.c **** extern uint8_t 	BSPABoardRx_InfoLen;
  55:Core/Src/stm32f1xx_it.c **** extern uint8_t 	BSPBBoardReceiveBuff[RXBUFFERSIZE];
  56:Core/Src/stm32f1xx_it.c **** extern uint8_t 	BSPBBoardReceiveInfo[RXBUFFERSIZE];
  57:Core/Src/stm32f1xx_it.c **** extern uint8_t	BSPBBoardRx_BufferLen;
  58:Core/Src/stm32f1xx_it.c **** extern uint8_t 	BSPBBoardRx_InfoLen;
  59:Core/Src/stm32f1xx_it.c **** /* USER CODE END 0 */
  60:Core/Src/stm32f1xx_it.c **** 
  61:Core/Src/stm32f1xx_it.c **** /* External variables --------------------------------------------------------*/
  62:Core/Src/stm32f1xx_it.c **** extern DMA_HandleTypeDef hdma_adc1;
  63:Core/Src/stm32f1xx_it.c **** extern TIM_HandleTypeDef htim4;
  64:Core/Src/stm32f1xx_it.c **** extern TIM_HandleTypeDef htim5;
  65:Core/Src/stm32f1xx_it.c **** extern DMA_HandleTypeDef hdma_usart1_rx;
  66:Core/Src/stm32f1xx_it.c **** extern DMA_HandleTypeDef hdma_usart2_rx;
  67:Core/Src/stm32f1xx_it.c **** extern DMA_HandleTypeDef hdma_usart3_rx;
  68:Core/Src/stm32f1xx_it.c **** extern UART_HandleTypeDef huart1;
  69:Core/Src/stm32f1xx_it.c **** extern UART_HandleTypeDef huart2;
  70:Core/Src/stm32f1xx_it.c **** extern UART_HandleTypeDef huart3;
  71:Core/Src/stm32f1xx_it.c **** 
  72:Core/Src/stm32f1xx_it.c **** extern TIM_HandleTypeDef htim1;
  73:Core/Src/stm32f1xx_it.c **** 
  74:Core/Src/stm32f1xx_it.c **** /******************************************************************************/
  75:Core/Src/stm32f1xx_it.c **** /*            Cortex-M3 Processor Interruption and Exception Handlers         */ 
  76:Core/Src/stm32f1xx_it.c **** /******************************************************************************/
  77:Core/Src/stm32f1xx_it.c **** 
  78:Core/Src/stm32f1xx_it.c **** /**
  79:Core/Src/stm32f1xx_it.c **** * @brief This function handles Non maskable interrupt.
  80:Core/Src/stm32f1xx_it.c **** */
  81:Core/Src/stm32f1xx_it.c **** void NMI_Handler(void)
  82:Core/Src/stm32f1xx_it.c **** {
  26              		.loc 1 82 0
  27              		.cfi_startproc
  28              		@ args = 0, pretend = 0, frame = 0
  29              		@ frame_needed = 0, uses_anonymous_args = 0
  30              		@ link register save eliminated.
  83:Core/Src/stm32f1xx_it.c ****   /* USER CODE BEGIN NonMaskableInt_IRQn 0 */
  84:Core/Src/stm32f1xx_it.c **** 
  85:Core/Src/stm32f1xx_it.c ****   /* USER CODE END NonMaskableInt_IRQn 0 */
ARM GAS  C:\Users\bertz\AppData\Local\Temp\ccAaqagT.s 			page 3


  86:Core/Src/stm32f1xx_it.c ****   /* USER CODE BEGIN NonMaskableInt_IRQn 1 */
  87:Core/Src/stm32f1xx_it.c **** 
  88:Core/Src/stm32f1xx_it.c ****   /* USER CODE END NonMaskableInt_IRQn 1 */
  89:Core/Src/stm32f1xx_it.c **** }
  31              		.loc 1 89 0
  32 0000 7047     		bx	lr
  33              		.cfi_endproc
  34              	.LFE71:
  36              		.section	.text.HardFault_Handler,"ax",%progbits
  37              		.align	1
  38              		.global	HardFault_Handler
  39              		.syntax unified
  40              		.thumb
  41              		.thumb_func
  42              		.fpu softvfp
  44              	HardFault_Handler:
  45              	.LFB72:
  90:Core/Src/stm32f1xx_it.c **** 
  91:Core/Src/stm32f1xx_it.c **** /**
  92:Core/Src/stm32f1xx_it.c **** * @brief This function handles Hard fault interrupt.
  93:Core/Src/stm32f1xx_it.c **** */
  94:Core/Src/stm32f1xx_it.c **** void HardFault_Handler(void)
  95:Core/Src/stm32f1xx_it.c **** {
  46              		.loc 1 95 0
  47              		.cfi_startproc
  48              		@ Volatile: function does not return.
  49              		@ args = 0, pretend = 0, frame = 0
  50              		@ frame_needed = 0, uses_anonymous_args = 0
  51              		@ link register save eliminated.
  52              	.L3:
  53 0000 FEE7     		b	.L3
  54              		.cfi_endproc
  55              	.LFE72:
  57              		.section	.text.MemManage_Handler,"ax",%progbits
  58              		.align	1
  59              		.global	MemManage_Handler
  60              		.syntax unified
  61              		.thumb
  62              		.thumb_func
  63              		.fpu softvfp
  65              	MemManage_Handler:
  66              	.LFB73:
  96:Core/Src/stm32f1xx_it.c ****   /* USER CODE BEGIN HardFault_IRQn 0 */
  97:Core/Src/stm32f1xx_it.c **** 
  98:Core/Src/stm32f1xx_it.c ****   /* USER CODE END HardFault_IRQn 0 */
  99:Core/Src/stm32f1xx_it.c ****   while (1)
 100:Core/Src/stm32f1xx_it.c ****   {
 101:Core/Src/stm32f1xx_it.c ****     /* USER CODE BEGIN W1_HardFault_IRQn 0 */
 102:Core/Src/stm32f1xx_it.c ****     /* USER CODE END W1_HardFault_IRQn 0 */
 103:Core/Src/stm32f1xx_it.c ****   }
 104:Core/Src/stm32f1xx_it.c ****   /* USER CODE BEGIN HardFault_IRQn 1 */
 105:Core/Src/stm32f1xx_it.c **** 
 106:Core/Src/stm32f1xx_it.c ****   /* USER CODE END HardFault_IRQn 1 */
 107:Core/Src/stm32f1xx_it.c **** }
 108:Core/Src/stm32f1xx_it.c **** 
 109:Core/Src/stm32f1xx_it.c **** /**
 110:Core/Src/stm32f1xx_it.c **** * @brief This function handles Memory management fault.
ARM GAS  C:\Users\bertz\AppData\Local\Temp\ccAaqagT.s 			page 4


 111:Core/Src/stm32f1xx_it.c **** */
 112:Core/Src/stm32f1xx_it.c **** void MemManage_Handler(void)
 113:Core/Src/stm32f1xx_it.c **** {
  67              		.loc 1 113 0
  68              		.cfi_startproc
  69              		@ Volatile: function does not return.
  70              		@ args = 0, pretend = 0, frame = 0
  71              		@ frame_needed = 0, uses_anonymous_args = 0
  72              		@ link register save eliminated.
  73              	.L5:
  74 0000 FEE7     		b	.L5
  75              		.cfi_endproc
  76              	.LFE73:
  78              		.section	.text.BusFault_Handler,"ax",%progbits
  79              		.align	1
  80              		.global	BusFault_Handler
  81              		.syntax unified
  82              		.thumb
  83              		.thumb_func
  84              		.fpu softvfp
  86              	BusFault_Handler:
  87              	.LFB74:
 114:Core/Src/stm32f1xx_it.c ****   /* USER CODE BEGIN MemoryManagement_IRQn 0 */
 115:Core/Src/stm32f1xx_it.c **** 
 116:Core/Src/stm32f1xx_it.c ****   /* USER CODE END MemoryManagement_IRQn 0 */
 117:Core/Src/stm32f1xx_it.c ****   while (1)
 118:Core/Src/stm32f1xx_it.c ****   {
 119:Core/Src/stm32f1xx_it.c ****     /* USER CODE BEGIN W1_MemoryManagement_IRQn 0 */
 120:Core/Src/stm32f1xx_it.c ****     /* USER CODE END W1_MemoryManagement_IRQn 0 */
 121:Core/Src/stm32f1xx_it.c ****   }
 122:Core/Src/stm32f1xx_it.c ****   /* USER CODE BEGIN MemoryManagement_IRQn 1 */
 123:Core/Src/stm32f1xx_it.c **** 
 124:Core/Src/stm32f1xx_it.c ****   /* USER CODE END MemoryManagement_IRQn 1 */
 125:Core/Src/stm32f1xx_it.c **** }
 126:Core/Src/stm32f1xx_it.c **** 
 127:Core/Src/stm32f1xx_it.c **** /**
 128:Core/Src/stm32f1xx_it.c **** * @brief This function handles Prefetch fault, memory access fault.
 129:Core/Src/stm32f1xx_it.c **** */
 130:Core/Src/stm32f1xx_it.c **** void BusFault_Handler(void)
 131:Core/Src/stm32f1xx_it.c **** {
  88              		.loc 1 131 0
  89              		.cfi_startproc
  90              		@ Volatile: function does not return.
  91              		@ args = 0, pretend = 0, frame = 0
  92              		@ frame_needed = 0, uses_anonymous_args = 0
  93              		@ link register save eliminated.
  94              	.L7:
  95 0000 FEE7     		b	.L7
  96              		.cfi_endproc
  97              	.LFE74:
  99              		.section	.text.UsageFault_Handler,"ax",%progbits
 100              		.align	1
 101              		.global	UsageFault_Handler
 102              		.syntax unified
 103              		.thumb
 104              		.thumb_func
 105              		.fpu softvfp
ARM GAS  C:\Users\bertz\AppData\Local\Temp\ccAaqagT.s 			page 5


 107              	UsageFault_Handler:
 108              	.LFB75:
 132:Core/Src/stm32f1xx_it.c ****   /* USER CODE BEGIN BusFault_IRQn 0 */
 133:Core/Src/stm32f1xx_it.c **** 
 134:Core/Src/stm32f1xx_it.c ****   /* USER CODE END BusFault_IRQn 0 */
 135:Core/Src/stm32f1xx_it.c ****   while (1)
 136:Core/Src/stm32f1xx_it.c ****   {
 137:Core/Src/stm32f1xx_it.c ****     /* USER CODE BEGIN W1_BusFault_IRQn 0 */
 138:Core/Src/stm32f1xx_it.c ****     /* USER CODE END W1_BusFault_IRQn 0 */
 139:Core/Src/stm32f1xx_it.c ****   }
 140:Core/Src/stm32f1xx_it.c ****   /* USER CODE BEGIN BusFault_IRQn 1 */
 141:Core/Src/stm32f1xx_it.c **** 
 142:Core/Src/stm32f1xx_it.c ****   /* USER CODE END BusFault_IRQn 1 */
 143:Core/Src/stm32f1xx_it.c **** }
 144:Core/Src/stm32f1xx_it.c **** 
 145:Core/Src/stm32f1xx_it.c **** /**
 146:Core/Src/stm32f1xx_it.c **** * @brief This function handles Undefined instruction or illegal state.
 147:Core/Src/stm32f1xx_it.c **** */
 148:Core/Src/stm32f1xx_it.c **** void UsageFault_Handler(void)
 149:Core/Src/stm32f1xx_it.c **** {
 109              		.loc 1 149 0
 110              		.cfi_startproc
 111              		@ Volatile: function does not return.
 112              		@ args = 0, pretend = 0, frame = 0
 113              		@ frame_needed = 0, uses_anonymous_args = 0
 114              		@ link register save eliminated.
 115              	.L9:
 116 0000 FEE7     		b	.L9
 117              		.cfi_endproc
 118              	.LFE75:
 120              		.section	.text.DebugMon_Handler,"ax",%progbits
 121              		.align	1
 122              		.global	DebugMon_Handler
 123              		.syntax unified
 124              		.thumb
 125              		.thumb_func
 126              		.fpu softvfp
 128              	DebugMon_Handler:
 129              	.LFB76:
 150:Core/Src/stm32f1xx_it.c ****   /* USER CODE BEGIN UsageFault_IRQn 0 */
 151:Core/Src/stm32f1xx_it.c **** 
 152:Core/Src/stm32f1xx_it.c ****   /* USER CODE END UsageFault_IRQn 0 */
 153:Core/Src/stm32f1xx_it.c ****   while (1)
 154:Core/Src/stm32f1xx_it.c ****   {
 155:Core/Src/stm32f1xx_it.c ****     /* USER CODE BEGIN W1_UsageFault_IRQn 0 */
 156:Core/Src/stm32f1xx_it.c ****     /* USER CODE END W1_UsageFault_IRQn 0 */
 157:Core/Src/stm32f1xx_it.c ****   }
 158:Core/Src/stm32f1xx_it.c ****   /* USER CODE BEGIN UsageFault_IRQn 1 */
 159:Core/Src/stm32f1xx_it.c **** 
 160:Core/Src/stm32f1xx_it.c ****   /* USER CODE END UsageFault_IRQn 1 */
 161:Core/Src/stm32f1xx_it.c **** }
 162:Core/Src/stm32f1xx_it.c **** 
 163:Core/Src/stm32f1xx_it.c **** /**
 164:Core/Src/stm32f1xx_it.c **** * @brief This function handles Debug monitor.
 165:Core/Src/stm32f1xx_it.c **** */
 166:Core/Src/stm32f1xx_it.c **** void DebugMon_Handler(void)
 167:Core/Src/stm32f1xx_it.c **** {
ARM GAS  C:\Users\bertz\AppData\Local\Temp\ccAaqagT.s 			page 6


 130              		.loc 1 167 0
 131              		.cfi_startproc
 132              		@ args = 0, pretend = 0, frame = 0
 133              		@ frame_needed = 0, uses_anonymous_args = 0
 134              		@ link register save eliminated.
 168:Core/Src/stm32f1xx_it.c ****   /* USER CODE BEGIN DebugMonitor_IRQn 0 */
 169:Core/Src/stm32f1xx_it.c **** 
 170:Core/Src/stm32f1xx_it.c ****   /* USER CODE END DebugMonitor_IRQn 0 */
 171:Core/Src/stm32f1xx_it.c ****   /* USER CODE BEGIN DebugMonitor_IRQn 1 */
 172:Core/Src/stm32f1xx_it.c **** 
 173:Core/Src/stm32f1xx_it.c ****   /* USER CODE END DebugMonitor_IRQn 1 */
 174:Core/Src/stm32f1xx_it.c **** }
 135              		.loc 1 174 0
 136 0000 7047     		bx	lr
 137              		.cfi_endproc
 138              	.LFE76:
 140              		.section	.text.SysTick_Handler,"ax",%progbits
 141              		.align	1
 142              		.global	SysTick_Handler
 143              		.syntax unified
 144              		.thumb
 145              		.thumb_func
 146              		.fpu softvfp
 148              	SysTick_Handler:
 149              	.LFB77:
 175:Core/Src/stm32f1xx_it.c **** 
 176:Core/Src/stm32f1xx_it.c **** /**
 177:Core/Src/stm32f1xx_it.c **** * @brief This function handles System tick timer.
 178:Core/Src/stm32f1xx_it.c **** */
 179:Core/Src/stm32f1xx_it.c **** void SysTick_Handler(void)
 180:Core/Src/stm32f1xx_it.c **** {
 150              		.loc 1 180 0
 151              		.cfi_startproc
 152              		@ args = 0, pretend = 0, frame = 0
 153              		@ frame_needed = 0, uses_anonymous_args = 0
 154 0000 08B5     		push	{r3, lr}
 155              	.LCFI0:
 156              		.cfi_def_cfa_offset 8
 157              		.cfi_offset 3, -8
 158              		.cfi_offset 14, -4
 181:Core/Src/stm32f1xx_it.c ****   /* USER CODE BEGIN SysTick_IRQn 0 */
 182:Core/Src/stm32f1xx_it.c **** 
 183:Core/Src/stm32f1xx_it.c ****   /* USER CODE END SysTick_IRQn 0 */
 184:Core/Src/stm32f1xx_it.c ****   osSystickHandler();
 159              		.loc 1 184 0
 160 0002 FFF7FEFF 		bl	osSystickHandler
 161              	.LVL0:
 185:Core/Src/stm32f1xx_it.c ****   /* USER CODE BEGIN SysTick_IRQn 1 */
 186:Core/Src/stm32f1xx_it.c **** 
 187:Core/Src/stm32f1xx_it.c ****   /* USER CODE END SysTick_IRQn 1 */
 188:Core/Src/stm32f1xx_it.c **** }
 162              		.loc 1 188 0
 163 0006 08BD     		pop	{r3, pc}
 164              		.cfi_endproc
 165              	.LFE77:
 167              		.section	.text.EXTI4_IRQHandler,"ax",%progbits
 168              		.align	1
ARM GAS  C:\Users\bertz\AppData\Local\Temp\ccAaqagT.s 			page 7


 169              		.global	EXTI4_IRQHandler
 170              		.syntax unified
 171              		.thumb
 172              		.thumb_func
 173              		.fpu softvfp
 175              	EXTI4_IRQHandler:
 176              	.LFB78:
 189:Core/Src/stm32f1xx_it.c **** 
 190:Core/Src/stm32f1xx_it.c **** /******************************************************************************/
 191:Core/Src/stm32f1xx_it.c **** /* STM32F1xx Peripheral Interrupt Handlers                                    */
 192:Core/Src/stm32f1xx_it.c **** /* Add here the Interrupt Handlers for the used peripherals.                  */
 193:Core/Src/stm32f1xx_it.c **** /* For the available peripheral interrupt handler names,                      */
 194:Core/Src/stm32f1xx_it.c **** /* please refer to the startup file (startup_stm32f1xx.s).                    */
 195:Core/Src/stm32f1xx_it.c **** /******************************************************************************/
 196:Core/Src/stm32f1xx_it.c **** 
 197:Core/Src/stm32f1xx_it.c **** /**
 198:Core/Src/stm32f1xx_it.c **** * @brief This function handles EXTI line4 interrupt.
 199:Core/Src/stm32f1xx_it.c **** */
 200:Core/Src/stm32f1xx_it.c **** void EXTI4_IRQHandler(void)
 201:Core/Src/stm32f1xx_it.c **** {
 177              		.loc 1 201 0
 178              		.cfi_startproc
 179              		@ args = 0, pretend = 0, frame = 0
 180              		@ frame_needed = 0, uses_anonymous_args = 0
 181 0000 08B5     		push	{r3, lr}
 182              	.LCFI1:
 183              		.cfi_def_cfa_offset 8
 184              		.cfi_offset 3, -8
 185              		.cfi_offset 14, -4
 202:Core/Src/stm32f1xx_it.c ****   /* USER CODE BEGIN EXTI4_IRQn 0 */
 203:Core/Src/stm32f1xx_it.c **** 
 204:Core/Src/stm32f1xx_it.c ****   /* USER CODE END EXTI4_IRQn 0 */
 205:Core/Src/stm32f1xx_it.c ****   HAL_GPIO_EXTI_IRQHandler(GPIO_PIN_4);
 186              		.loc 1 205 0
 187 0002 1020     		movs	r0, #16
 188 0004 FFF7FEFF 		bl	HAL_GPIO_EXTI_IRQHandler
 189              	.LVL1:
 206:Core/Src/stm32f1xx_it.c ****   /* USER CODE BEGIN EXTI4_IRQn 1 */
 207:Core/Src/stm32f1xx_it.c **** 
 208:Core/Src/stm32f1xx_it.c ****   /* USER CODE END EXTI4_IRQn 1 */
 209:Core/Src/stm32f1xx_it.c **** }
 190              		.loc 1 209 0
 191 0008 08BD     		pop	{r3, pc}
 192              		.cfi_endproc
 193              	.LFE78:
 195              		.section	.text.DMA1_Channel1_IRQHandler,"ax",%progbits
 196              		.align	1
 197              		.global	DMA1_Channel1_IRQHandler
 198              		.syntax unified
 199              		.thumb
 200              		.thumb_func
 201              		.fpu softvfp
 203              	DMA1_Channel1_IRQHandler:
 204              	.LFB79:
 210:Core/Src/stm32f1xx_it.c **** 
 211:Core/Src/stm32f1xx_it.c **** /**
 212:Core/Src/stm32f1xx_it.c **** * @brief This function handles DMA1 channel1 global interrupt.
ARM GAS  C:\Users\bertz\AppData\Local\Temp\ccAaqagT.s 			page 8


 213:Core/Src/stm32f1xx_it.c **** */
 214:Core/Src/stm32f1xx_it.c **** void DMA1_Channel1_IRQHandler(void)
 215:Core/Src/stm32f1xx_it.c **** {
 205              		.loc 1 215 0
 206              		.cfi_startproc
 207              		@ args = 0, pretend = 0, frame = 0
 208              		@ frame_needed = 0, uses_anonymous_args = 0
 209 0000 08B5     		push	{r3, lr}
 210              	.LCFI2:
 211              		.cfi_def_cfa_offset 8
 212              		.cfi_offset 3, -8
 213              		.cfi_offset 14, -4
 216:Core/Src/stm32f1xx_it.c ****   /* USER CODE BEGIN DMA1_Channel1_IRQn 0 */
 217:Core/Src/stm32f1xx_it.c **** 
 218:Core/Src/stm32f1xx_it.c ****   /* USER CODE END DMA1_Channel1_IRQn 0 */
 219:Core/Src/stm32f1xx_it.c ****   HAL_DMA_IRQHandler(&hdma_adc1);
 214              		.loc 1 219 0
 215 0002 0248     		ldr	r0, .L17
 216 0004 FFF7FEFF 		bl	HAL_DMA_IRQHandler
 217              	.LVL2:
 220:Core/Src/stm32f1xx_it.c ****   /* USER CODE BEGIN DMA1_Channel1_IRQn 1 */
 221:Core/Src/stm32f1xx_it.c **** 
 222:Core/Src/stm32f1xx_it.c ****   /* USER CODE END DMA1_Channel1_IRQn 1 */
 223:Core/Src/stm32f1xx_it.c **** }
 218              		.loc 1 223 0
 219 0008 08BD     		pop	{r3, pc}
 220              	.L18:
 221 000a 00BF     		.align	2
 222              	.L17:
 223 000c 00000000 		.word	hdma_adc1
 224              		.cfi_endproc
 225              	.LFE79:
 227              		.section	.text.DMA1_Channel3_IRQHandler,"ax",%progbits
 228              		.align	1
 229              		.global	DMA1_Channel3_IRQHandler
 230              		.syntax unified
 231              		.thumb
 232              		.thumb_func
 233              		.fpu softvfp
 235              	DMA1_Channel3_IRQHandler:
 236              	.LFB80:
 224:Core/Src/stm32f1xx_it.c **** 
 225:Core/Src/stm32f1xx_it.c **** /**
 226:Core/Src/stm32f1xx_it.c **** * @brief This function handles DMA1 channel3 global interrupt.
 227:Core/Src/stm32f1xx_it.c **** */
 228:Core/Src/stm32f1xx_it.c **** void DMA1_Channel3_IRQHandler(void)
 229:Core/Src/stm32f1xx_it.c **** {
 237              		.loc 1 229 0
 238              		.cfi_startproc
 239              		@ args = 0, pretend = 0, frame = 0
 240              		@ frame_needed = 0, uses_anonymous_args = 0
 241 0000 08B5     		push	{r3, lr}
 242              	.LCFI3:
 243              		.cfi_def_cfa_offset 8
 244              		.cfi_offset 3, -8
 245              		.cfi_offset 14, -4
 230:Core/Src/stm32f1xx_it.c ****   /* USER CODE BEGIN DMA1_Channel3_IRQn 0 */
ARM GAS  C:\Users\bertz\AppData\Local\Temp\ccAaqagT.s 			page 9


 231:Core/Src/stm32f1xx_it.c **** 
 232:Core/Src/stm32f1xx_it.c ****   /* USER CODE END DMA1_Channel3_IRQn 0 */
 233:Core/Src/stm32f1xx_it.c ****   HAL_DMA_IRQHandler(&hdma_usart3_rx);
 246              		.loc 1 233 0
 247 0002 0248     		ldr	r0, .L21
 248 0004 FFF7FEFF 		bl	HAL_DMA_IRQHandler
 249              	.LVL3:
 234:Core/Src/stm32f1xx_it.c ****   /* USER CODE BEGIN DMA1_Channel3_IRQn 1 */
 235:Core/Src/stm32f1xx_it.c **** 
 236:Core/Src/stm32f1xx_it.c ****   /* USER CODE END DMA1_Channel3_IRQn 1 */
 237:Core/Src/stm32f1xx_it.c **** }
 250              		.loc 1 237 0
 251 0008 08BD     		pop	{r3, pc}
 252              	.L22:
 253 000a 00BF     		.align	2
 254              	.L21:
 255 000c 00000000 		.word	hdma_usart3_rx
 256              		.cfi_endproc
 257              	.LFE80:
 259              		.section	.text.DMA1_Channel5_IRQHandler,"ax",%progbits
 260              		.align	1
 261              		.global	DMA1_Channel5_IRQHandler
 262              		.syntax unified
 263              		.thumb
 264              		.thumb_func
 265              		.fpu softvfp
 267              	DMA1_Channel5_IRQHandler:
 268              	.LFB81:
 238:Core/Src/stm32f1xx_it.c **** 
 239:Core/Src/stm32f1xx_it.c **** /**
 240:Core/Src/stm32f1xx_it.c **** * @brief This function handles DMA1 channel5 global interrupt.
 241:Core/Src/stm32f1xx_it.c **** */
 242:Core/Src/stm32f1xx_it.c **** void DMA1_Channel5_IRQHandler(void)
 243:Core/Src/stm32f1xx_it.c **** {
 269              		.loc 1 243 0
 270              		.cfi_startproc
 271              		@ args = 0, pretend = 0, frame = 0
 272              		@ frame_needed = 0, uses_anonymous_args = 0
 273 0000 08B5     		push	{r3, lr}
 274              	.LCFI4:
 275              		.cfi_def_cfa_offset 8
 276              		.cfi_offset 3, -8
 277              		.cfi_offset 14, -4
 244:Core/Src/stm32f1xx_it.c ****   /* USER CODE BEGIN DMA1_Channel5_IRQn 0 */
 245:Core/Src/stm32f1xx_it.c **** 
 246:Core/Src/stm32f1xx_it.c ****   /* USER CODE END DMA1_Channel5_IRQn 0 */
 247:Core/Src/stm32f1xx_it.c ****   HAL_DMA_IRQHandler(&hdma_usart1_rx);
 278              		.loc 1 247 0
 279 0002 0248     		ldr	r0, .L25
 280 0004 FFF7FEFF 		bl	HAL_DMA_IRQHandler
 281              	.LVL4:
 248:Core/Src/stm32f1xx_it.c ****   /* USER CODE BEGIN DMA1_Channel5_IRQn 1 */
 249:Core/Src/stm32f1xx_it.c **** 
 250:Core/Src/stm32f1xx_it.c ****   /* USER CODE END DMA1_Channel5_IRQn 1 */
 251:Core/Src/stm32f1xx_it.c **** }
 282              		.loc 1 251 0
 283 0008 08BD     		pop	{r3, pc}
ARM GAS  C:\Users\bertz\AppData\Local\Temp\ccAaqagT.s 			page 10


 284              	.L26:
 285 000a 00BF     		.align	2
 286              	.L25:
 287 000c 00000000 		.word	hdma_usart1_rx
 288              		.cfi_endproc
 289              	.LFE81:
 291              		.section	.text.DMA1_Channel6_IRQHandler,"ax",%progbits
 292              		.align	1
 293              		.global	DMA1_Channel6_IRQHandler
 294              		.syntax unified
 295              		.thumb
 296              		.thumb_func
 297              		.fpu softvfp
 299              	DMA1_Channel6_IRQHandler:
 300              	.LFB82:
 252:Core/Src/stm32f1xx_it.c **** 
 253:Core/Src/stm32f1xx_it.c **** /**
 254:Core/Src/stm32f1xx_it.c **** * @brief This function handles DMA1 channel6 global interrupt.
 255:Core/Src/stm32f1xx_it.c **** */
 256:Core/Src/stm32f1xx_it.c **** void DMA1_Channel6_IRQHandler(void)
 257:Core/Src/stm32f1xx_it.c **** {
 301              		.loc 1 257 0
 302              		.cfi_startproc
 303              		@ args = 0, pretend = 0, frame = 0
 304              		@ frame_needed = 0, uses_anonymous_args = 0
 305 0000 08B5     		push	{r3, lr}
 306              	.LCFI5:
 307              		.cfi_def_cfa_offset 8
 308              		.cfi_offset 3, -8
 309              		.cfi_offset 14, -4
 258:Core/Src/stm32f1xx_it.c ****   /* USER CODE BEGIN DMA1_Channel6_IRQn 0 */
 259:Core/Src/stm32f1xx_it.c **** 
 260:Core/Src/stm32f1xx_it.c ****   /* USER CODE END DMA1_Channel6_IRQn 0 */
 261:Core/Src/stm32f1xx_it.c ****   HAL_DMA_IRQHandler(&hdma_usart2_rx);
 310              		.loc 1 261 0
 311 0002 0248     		ldr	r0, .L29
 312 0004 FFF7FEFF 		bl	HAL_DMA_IRQHandler
 313              	.LVL5:
 262:Core/Src/stm32f1xx_it.c ****   /* USER CODE BEGIN DMA1_Channel6_IRQn 1 */
 263:Core/Src/stm32f1xx_it.c **** 
 264:Core/Src/stm32f1xx_it.c ****   /* USER CODE END DMA1_Channel6_IRQn 1 */
 265:Core/Src/stm32f1xx_it.c **** }
 314              		.loc 1 265 0
 315 0008 08BD     		pop	{r3, pc}
 316              	.L30:
 317 000a 00BF     		.align	2
 318              	.L29:
 319 000c 00000000 		.word	hdma_usart2_rx
 320              		.cfi_endproc
 321              	.LFE82:
 323              		.section	.text.TIM1_UP_IRQHandler,"ax",%progbits
 324              		.align	1
 325              		.global	TIM1_UP_IRQHandler
 326              		.syntax unified
 327              		.thumb
 328              		.thumb_func
 329              		.fpu softvfp
ARM GAS  C:\Users\bertz\AppData\Local\Temp\ccAaqagT.s 			page 11


 331              	TIM1_UP_IRQHandler:
 332              	.LFB83:
 266:Core/Src/stm32f1xx_it.c **** 
 267:Core/Src/stm32f1xx_it.c **** /**
 268:Core/Src/stm32f1xx_it.c **** * @brief This function handles TIM1 update interrupt.
 269:Core/Src/stm32f1xx_it.c **** */
 270:Core/Src/stm32f1xx_it.c **** void TIM1_UP_IRQHandler(void)
 271:Core/Src/stm32f1xx_it.c **** {
 333              		.loc 1 271 0
 334              		.cfi_startproc
 335              		@ args = 0, pretend = 0, frame = 0
 336              		@ frame_needed = 0, uses_anonymous_args = 0
 337 0000 08B5     		push	{r3, lr}
 338              	.LCFI6:
 339              		.cfi_def_cfa_offset 8
 340              		.cfi_offset 3, -8
 341              		.cfi_offset 14, -4
 272:Core/Src/stm32f1xx_it.c ****   /* USER CODE BEGIN TIM1_UP_IRQn 0 */
 273:Core/Src/stm32f1xx_it.c **** 
 274:Core/Src/stm32f1xx_it.c ****   /* USER CODE END TIM1_UP_IRQn 0 */
 275:Core/Src/stm32f1xx_it.c ****   HAL_TIM_IRQHandler(&htim1);
 342              		.loc 1 275 0
 343 0002 0248     		ldr	r0, .L33
 344 0004 FFF7FEFF 		bl	HAL_TIM_IRQHandler
 345              	.LVL6:
 276:Core/Src/stm32f1xx_it.c ****   /* USER CODE BEGIN TIM1_UP_IRQn 1 */
 277:Core/Src/stm32f1xx_it.c **** 
 278:Core/Src/stm32f1xx_it.c ****   /* USER CODE END TIM1_UP_IRQn 1 */
 279:Core/Src/stm32f1xx_it.c **** }
 346              		.loc 1 279 0
 347 0008 08BD     		pop	{r3, pc}
 348              	.L34:
 349 000a 00BF     		.align	2
 350              	.L33:
 351 000c 00000000 		.word	htim1
 352              		.cfi_endproc
 353              	.LFE83:
 355              		.section	.text.TIM4_IRQHandler,"ax",%progbits
 356              		.align	1
 357              		.global	TIM4_IRQHandler
 358              		.syntax unified
 359              		.thumb
 360              		.thumb_func
 361              		.fpu softvfp
 363              	TIM4_IRQHandler:
 364              	.LFB84:
 280:Core/Src/stm32f1xx_it.c **** 
 281:Core/Src/stm32f1xx_it.c **** /**
 282:Core/Src/stm32f1xx_it.c **** * @brief This function handles TIM4 global interrupt.
 283:Core/Src/stm32f1xx_it.c **** */
 284:Core/Src/stm32f1xx_it.c **** void TIM4_IRQHandler(void)
 285:Core/Src/stm32f1xx_it.c **** {
 365              		.loc 1 285 0
 366              		.cfi_startproc
 367              		@ args = 0, pretend = 0, frame = 0
 368              		@ frame_needed = 0, uses_anonymous_args = 0
 369 0000 08B5     		push	{r3, lr}
ARM GAS  C:\Users\bertz\AppData\Local\Temp\ccAaqagT.s 			page 12


 370              	.LCFI7:
 371              		.cfi_def_cfa_offset 8
 372              		.cfi_offset 3, -8
 373              		.cfi_offset 14, -4
 286:Core/Src/stm32f1xx_it.c ****   /* USER CODE BEGIN TIM4_IRQn 0 */
 287:Core/Src/stm32f1xx_it.c **** 
 288:Core/Src/stm32f1xx_it.c ****   /* USER CODE END TIM4_IRQn 0 */
 289:Core/Src/stm32f1xx_it.c ****   HAL_TIM_IRQHandler(&htim4);
 374              		.loc 1 289 0
 375 0002 0248     		ldr	r0, .L37
 376 0004 FFF7FEFF 		bl	HAL_TIM_IRQHandler
 377              	.LVL7:
 290:Core/Src/stm32f1xx_it.c ****   /* USER CODE BEGIN TIM4_IRQn 1 */
 291:Core/Src/stm32f1xx_it.c **** 
 292:Core/Src/stm32f1xx_it.c ****   /* USER CODE END TIM4_IRQn 1 */
 293:Core/Src/stm32f1xx_it.c **** }
 378              		.loc 1 293 0
 379 0008 08BD     		pop	{r3, pc}
 380              	.L38:
 381 000a 00BF     		.align	2
 382              	.L37:
 383 000c 00000000 		.word	htim4
 384              		.cfi_endproc
 385              	.LFE84:
 387              		.section	.text.USART1_IRQHandler,"ax",%progbits
 388              		.align	1
 389              		.global	USART1_IRQHandler
 390              		.syntax unified
 391              		.thumb
 392              		.thumb_func
 393              		.fpu softvfp
 395              	USART1_IRQHandler:
 396              	.LFB85:
 294:Core/Src/stm32f1xx_it.c **** 
 295:Core/Src/stm32f1xx_it.c **** /**
 296:Core/Src/stm32f1xx_it.c **** * @brief This function handles USART1 global interrupt.
 297:Core/Src/stm32f1xx_it.c **** */
 298:Core/Src/stm32f1xx_it.c **** void USART1_IRQHandler(void)
 299:Core/Src/stm32f1xx_it.c **** {
 397              		.loc 1 299 0
 398              		.cfi_startproc
 399              		@ args = 0, pretend = 0, frame = 8
 400              		@ frame_needed = 0, uses_anonymous_args = 0
 401 0000 F0B5     		push	{r4, r5, r6, r7, lr}
 402              	.LCFI8:
 403              		.cfi_def_cfa_offset 20
 404              		.cfi_offset 4, -20
 405              		.cfi_offset 5, -16
 406              		.cfi_offset 6, -12
 407              		.cfi_offset 7, -8
 408              		.cfi_offset 14, -4
 409 0002 83B0     		sub	sp, sp, #12
 410              	.LCFI9:
 411              		.cfi_def_cfa_offset 32
 300:Core/Src/stm32f1xx_it.c ****   /* USER CODE BEGIN USART1_IRQn 0 */
 301:Core/Src/stm32f1xx_it.c ****   uint32_t temp;
 302:Core/Src/stm32f1xx_it.c ****   static BaseType_t xHigherPriorityTaskWoken;
ARM GAS  C:\Users\bertz\AppData\Local\Temp\ccAaqagT.s 			page 13


 303:Core/Src/stm32f1xx_it.c ****   if(RESET != __HAL_UART_GET_FLAG(&huart1, UART_FLAG_IDLE))
 412              		.loc 1 303 0
 413 0004 204B     		ldr	r3, .L44
 414 0006 1B68     		ldr	r3, [r3]
 415 0008 1B68     		ldr	r3, [r3]
 416 000a 13F0100F 		tst	r3, #16
 417 000e 14D1     		bne	.L43
 418              	.L40:
 304:Core/Src/stm32f1xx_it.c ****   {
 305:Core/Src/stm32f1xx_it.c **** 	HAL_UART_DMAStop(&huart1);
 306:Core/Src/stm32f1xx_it.c **** 	temp = __HAL_DMA_GET_COUNTER(&hdma_usart1_rx);
 307:Core/Src/stm32f1xx_it.c ****     __HAL_UART_CLEAR_IDLEFLAG(&huart1);
 308:Core/Src/stm32f1xx_it.c **** 	CoreBoardRx_BufferLen = RXBUFFERSIZE - temp;
 309:Core/Src/stm32f1xx_it.c **** 	CoreBoardRx_InfoLen = CoreBoardRx_BufferLen;
 310:Core/Src/stm32f1xx_it.c **** 	memcpy(CoreBoardReceiveInfo,CoreBoardReceiveBuff,CoreBoardRx_BufferLen);
 311:Core/Src/stm32f1xx_it.c **** 	memset(CoreBoardReceiveBuff, 0x00, CoreBoardRx_BufferLen);
 312:Core/Src/stm32f1xx_it.c **** 	CoreBoardRx_BufferLen = 0;
 313:Core/Src/stm32f1xx_it.c **** 	HAL_UART_Receive_DMA(&huart1,CoreBoardReceiveBuff,RXBUFFERSIZE);
 314:Core/Src/stm32f1xx_it.c ****   }
 315:Core/Src/stm32f1xx_it.c ****   /* USER CODE END USART1_IRQn 0 */
 316:Core/Src/stm32f1xx_it.c ****   HAL_UART_IRQHandler(&huart1);
 419              		.loc 1 316 0
 420 0010 1D48     		ldr	r0, .L44
 421 0012 FFF7FEFF 		bl	HAL_UART_IRQHandler
 422              	.LVL8:
 317:Core/Src/stm32f1xx_it.c ****   /* USER CODE BEGIN USART1_IRQn 1 */
 318:Core/Src/stm32f1xx_it.c ****   xSemaphoreGiveFromISR(xScanCoreBoardSemaphore, &xHigherPriorityTaskWoken);
 423              		.loc 1 318 0
 424 0016 1D4C     		ldr	r4, .L44+4
 425 0018 2146     		mov	r1, r4
 426 001a 1D4B     		ldr	r3, .L44+8
 427 001c 1868     		ldr	r0, [r3]
 428 001e FFF7FEFF 		bl	xQueueGiveFromISR
 429              	.LVL9:
 319:Core/Src/stm32f1xx_it.c ****   portEND_SWITCHING_ISR(xHigherPriorityTaskWoken);
 430              		.loc 1 319 0
 431 0022 2368     		ldr	r3, [r4]
 432 0024 3BB1     		cbz	r3, .L39
 433              		.loc 1 319 0 is_stmt 0 discriminator 1
 434 0026 1B4B     		ldr	r3, .L44+12
 435 0028 4FF08052 		mov	r2, #268435456
 436 002c 1A60     		str	r2, [r3]
 437              		.syntax unified
 438              	@ 319 "Core/Src/stm32f1xx_it.c" 1
 439 002e BFF34F8F 		dsb
 440              	@ 0 "" 2
 441              	@ 319 "Core/Src/stm32f1xx_it.c" 1
 442 0032 BFF36F8F 		isb
 443              	@ 0 "" 2
 444              		.thumb
 445              		.syntax unified
 446              	.L39:
 320:Core/Src/stm32f1xx_it.c ****   /* USER CODE END USART1_IRQn 1 */
 321:Core/Src/stm32f1xx_it.c **** }
 447              		.loc 1 321 0 is_stmt 1
 448 0036 03B0     		add	sp, sp, #12
 449              	.LCFI10:
ARM GAS  C:\Users\bertz\AppData\Local\Temp\ccAaqagT.s 			page 14


 450              		.cfi_remember_state
 451              		.cfi_def_cfa_offset 20
 452              		@ sp needed
 453 0038 F0BD     		pop	{r4, r5, r6, r7, pc}
 454              	.L43:
 455              	.LCFI11:
 456              		.cfi_restore_state
 305:Core/Src/stm32f1xx_it.c **** 	temp = __HAL_DMA_GET_COUNTER(&hdma_usart1_rx);
 457              		.loc 1 305 0
 458 003a 134D     		ldr	r5, .L44
 459 003c 2846     		mov	r0, r5
 460 003e FFF7FEFF 		bl	HAL_UART_DMAStop
 461              	.LVL10:
 306:Core/Src/stm32f1xx_it.c ****     __HAL_UART_CLEAR_IDLEFLAG(&huart1);
 462              		.loc 1 306 0
 463 0042 154B     		ldr	r3, .L44+16
 464 0044 1B68     		ldr	r3, [r3]
 465 0046 5C68     		ldr	r4, [r3, #4]
 466              	.LVL11:
 467              	.LBB2:
 307:Core/Src/stm32f1xx_it.c **** 	CoreBoardRx_BufferLen = RXBUFFERSIZE - temp;
 468              		.loc 1 307 0
 469 0048 0027     		movs	r7, #0
 470 004a 0197     		str	r7, [sp, #4]
 471 004c 2B68     		ldr	r3, [r5]
 472 004e 1A68     		ldr	r2, [r3]
 473 0050 0192     		str	r2, [sp, #4]
 474 0052 5B68     		ldr	r3, [r3, #4]
 475 0054 0193     		str	r3, [sp, #4]
 476 0056 019B     		ldr	r3, [sp, #4]
 477              	.LBE2:
 308:Core/Src/stm32f1xx_it.c **** 	CoreBoardRx_InfoLen = CoreBoardRx_BufferLen;
 478              		.loc 1 308 0
 479 0058 C4F18004 		rsb	r4, r4, #128
 480              	.LVL12:
 481 005c E4B2     		uxtb	r4, r4
 309:Core/Src/stm32f1xx_it.c **** 	memcpy(CoreBoardReceiveInfo,CoreBoardReceiveBuff,CoreBoardRx_BufferLen);
 482              		.loc 1 309 0
 483 005e 0F4B     		ldr	r3, .L44+20
 484 0060 1C70     		strb	r4, [r3]
 310:Core/Src/stm32f1xx_it.c **** 	memset(CoreBoardReceiveBuff, 0x00, CoreBoardRx_BufferLen);
 485              		.loc 1 310 0
 486 0062 0F4E     		ldr	r6, .L44+24
 487 0064 2246     		mov	r2, r4
 488 0066 3146     		mov	r1, r6
 489 0068 0E48     		ldr	r0, .L44+28
 490 006a FFF7FEFF 		bl	memcpy
 491              	.LVL13:
 311:Core/Src/stm32f1xx_it.c **** 	CoreBoardRx_BufferLen = 0;
 492              		.loc 1 311 0
 493 006e 2246     		mov	r2, r4
 494 0070 3946     		mov	r1, r7
 495 0072 3046     		mov	r0, r6
 496 0074 FFF7FEFF 		bl	memset
 497              	.LVL14:
 312:Core/Src/stm32f1xx_it.c **** 	HAL_UART_Receive_DMA(&huart1,CoreBoardReceiveBuff,RXBUFFERSIZE);
 498              		.loc 1 312 0
ARM GAS  C:\Users\bertz\AppData\Local\Temp\ccAaqagT.s 			page 15


 499 0078 0B4B     		ldr	r3, .L44+32
 500 007a 1F70     		strb	r7, [r3]
 313:Core/Src/stm32f1xx_it.c ****   }
 501              		.loc 1 313 0
 502 007c 8022     		movs	r2, #128
 503 007e 3146     		mov	r1, r6
 504 0080 2846     		mov	r0, r5
 505 0082 FFF7FEFF 		bl	HAL_UART_Receive_DMA
 506              	.LVL15:
 507 0086 C3E7     		b	.L40
 508              	.L45:
 509              		.align	2
 510              	.L44:
 511 0088 00000000 		.word	huart1
 512 008c 00000000 		.word	.LANCHOR0
 513 0090 00000000 		.word	xScanCoreBoardSemaphore
 514 0094 04ED00E0 		.word	-536810236
 515 0098 00000000 		.word	hdma_usart1_rx
 516 009c 00000000 		.word	CoreBoardRx_InfoLen
 517 00a0 00000000 		.word	CoreBoardReceiveBuff
 518 00a4 00000000 		.word	CoreBoardReceiveInfo
 519 00a8 00000000 		.word	CoreBoardRx_BufferLen
 520              		.cfi_endproc
 521              	.LFE85:
 523              		.section	.text.USART2_IRQHandler,"ax",%progbits
 524              		.align	1
 525              		.global	USART2_IRQHandler
 526              		.syntax unified
 527              		.thumb
 528              		.thumb_func
 529              		.fpu softvfp
 531              	USART2_IRQHandler:
 532              	.LFB86:
 322:Core/Src/stm32f1xx_it.c **** 
 323:Core/Src/stm32f1xx_it.c **** /**
 324:Core/Src/stm32f1xx_it.c **** * @brief This function handles USART2 global interrupt.
 325:Core/Src/stm32f1xx_it.c **** */
 326:Core/Src/stm32f1xx_it.c **** void USART2_IRQHandler(void)
 327:Core/Src/stm32f1xx_it.c **** {
 533              		.loc 1 327 0
 534              		.cfi_startproc
 535              		@ args = 0, pretend = 0, frame = 8
 536              		@ frame_needed = 0, uses_anonymous_args = 0
 537 0000 F0B5     		push	{r4, r5, r6, r7, lr}
 538              	.LCFI12:
 539              		.cfi_def_cfa_offset 20
 540              		.cfi_offset 4, -20
 541              		.cfi_offset 5, -16
 542              		.cfi_offset 6, -12
 543              		.cfi_offset 7, -8
 544              		.cfi_offset 14, -4
 545 0002 83B0     		sub	sp, sp, #12
 546              	.LCFI13:
 547              		.cfi_def_cfa_offset 32
 328:Core/Src/stm32f1xx_it.c ****   /* USER CODE BEGIN USART2_IRQn 0 */
 329:Core/Src/stm32f1xx_it.c ****   uint32_t temp;
 330:Core/Src/stm32f1xx_it.c ****   static BaseType_t xHigherPriorityTaskWoken;
ARM GAS  C:\Users\bertz\AppData\Local\Temp\ccAaqagT.s 			page 16


 331:Core/Src/stm32f1xx_it.c ****   if(RESET != __HAL_UART_GET_FLAG(&huart2, UART_FLAG_IDLE))
 548              		.loc 1 331 0
 549 0004 204B     		ldr	r3, .L51
 550 0006 1B68     		ldr	r3, [r3]
 551 0008 1B68     		ldr	r3, [r3]
 552 000a 13F0100F 		tst	r3, #16
 553 000e 14D1     		bne	.L50
 554              	.L47:
 332:Core/Src/stm32f1xx_it.c ****   {
 333:Core/Src/stm32f1xx_it.c **** 	HAL_UART_DMAStop(&huart2);
 334:Core/Src/stm32f1xx_it.c **** 	temp = __HAL_DMA_GET_COUNTER(&hdma_usart2_rx);
 335:Core/Src/stm32f1xx_it.c ****     __HAL_UART_CLEAR_IDLEFLAG(&huart2);
 336:Core/Src/stm32f1xx_it.c **** 	BSPABoardRx_BufferLen = RXBUFFERSIZE - temp;
 337:Core/Src/stm32f1xx_it.c **** 	BSPABoardRx_InfoLen = BSPABoardRx_BufferLen;
 338:Core/Src/stm32f1xx_it.c **** 	memcpy(BSPABoardReceiveInfo,BSPABoardReceiveBuff,BSPABoardRx_BufferLen);
 339:Core/Src/stm32f1xx_it.c **** 	memset(BSPABoardReceiveBuff, 0x00, BSPABoardRx_BufferLen);
 340:Core/Src/stm32f1xx_it.c **** 	BSPABoardRx_BufferLen = 0;
 341:Core/Src/stm32f1xx_it.c **** 	HAL_UART_Receive_DMA(&huart2,BSPABoardReceiveBuff,RXBUFFERSIZE);
 342:Core/Src/stm32f1xx_it.c ****   }
 343:Core/Src/stm32f1xx_it.c ****   /* USER CODE END USART2_IRQn 0 */
 344:Core/Src/stm32f1xx_it.c ****   HAL_UART_IRQHandler(&huart2);
 555              		.loc 1 344 0
 556 0010 1D48     		ldr	r0, .L51
 557 0012 FFF7FEFF 		bl	HAL_UART_IRQHandler
 558              	.LVL16:
 345:Core/Src/stm32f1xx_it.c ****   /* USER CODE BEGIN USART2_IRQn 1 */
 346:Core/Src/stm32f1xx_it.c ****   xSemaphoreGiveFromISR(xScanBSPABoardSemaphore, &xHigherPriorityTaskWoken);
 559              		.loc 1 346 0
 560 0016 1D4C     		ldr	r4, .L51+4
 561 0018 2146     		mov	r1, r4
 562 001a 1D4B     		ldr	r3, .L51+8
 563 001c 1868     		ldr	r0, [r3]
 564 001e FFF7FEFF 		bl	xQueueGiveFromISR
 565              	.LVL17:
 347:Core/Src/stm32f1xx_it.c ****   portEND_SWITCHING_ISR(xHigherPriorityTaskWoken);
 566              		.loc 1 347 0
 567 0022 2368     		ldr	r3, [r4]
 568 0024 3BB1     		cbz	r3, .L46
 569              		.loc 1 347 0 is_stmt 0 discriminator 1
 570 0026 1B4B     		ldr	r3, .L51+12
 571 0028 4FF08052 		mov	r2, #268435456
 572 002c 1A60     		str	r2, [r3]
 573              		.syntax unified
 574              	@ 347 "Core/Src/stm32f1xx_it.c" 1
 575 002e BFF34F8F 		dsb
 576              	@ 0 "" 2
 577              	@ 347 "Core/Src/stm32f1xx_it.c" 1
 578 0032 BFF36F8F 		isb
 579              	@ 0 "" 2
 580              		.thumb
 581              		.syntax unified
 582              	.L46:
 348:Core/Src/stm32f1xx_it.c ****   /* USER CODE END USART2_IRQn 1 */
 349:Core/Src/stm32f1xx_it.c **** }
 583              		.loc 1 349 0 is_stmt 1
 584 0036 03B0     		add	sp, sp, #12
 585              	.LCFI14:
ARM GAS  C:\Users\bertz\AppData\Local\Temp\ccAaqagT.s 			page 17


 586              		.cfi_remember_state
 587              		.cfi_def_cfa_offset 20
 588              		@ sp needed
 589 0038 F0BD     		pop	{r4, r5, r6, r7, pc}
 590              	.L50:
 591              	.LCFI15:
 592              		.cfi_restore_state
 333:Core/Src/stm32f1xx_it.c **** 	temp = __HAL_DMA_GET_COUNTER(&hdma_usart2_rx);
 593              		.loc 1 333 0
 594 003a 134D     		ldr	r5, .L51
 595 003c 2846     		mov	r0, r5
 596 003e FFF7FEFF 		bl	HAL_UART_DMAStop
 597              	.LVL18:
 334:Core/Src/stm32f1xx_it.c ****     __HAL_UART_CLEAR_IDLEFLAG(&huart2);
 598              		.loc 1 334 0
 599 0042 154B     		ldr	r3, .L51+16
 600 0044 1B68     		ldr	r3, [r3]
 601 0046 5C68     		ldr	r4, [r3, #4]
 602              	.LVL19:
 603              	.LBB3:
 335:Core/Src/stm32f1xx_it.c **** 	BSPABoardRx_BufferLen = RXBUFFERSIZE - temp;
 604              		.loc 1 335 0
 605 0048 0027     		movs	r7, #0
 606 004a 0197     		str	r7, [sp, #4]
 607 004c 2B68     		ldr	r3, [r5]
 608 004e 1A68     		ldr	r2, [r3]
 609 0050 0192     		str	r2, [sp, #4]
 610 0052 5B68     		ldr	r3, [r3, #4]
 611 0054 0193     		str	r3, [sp, #4]
 612 0056 019B     		ldr	r3, [sp, #4]
 613              	.LBE3:
 336:Core/Src/stm32f1xx_it.c **** 	BSPABoardRx_InfoLen = BSPABoardRx_BufferLen;
 614              		.loc 1 336 0
 615 0058 C4F18004 		rsb	r4, r4, #128
 616              	.LVL20:
 617 005c E4B2     		uxtb	r4, r4
 337:Core/Src/stm32f1xx_it.c **** 	memcpy(BSPABoardReceiveInfo,BSPABoardReceiveBuff,BSPABoardRx_BufferLen);
 618              		.loc 1 337 0
 619 005e 0F4B     		ldr	r3, .L51+20
 620 0060 1C70     		strb	r4, [r3]
 338:Core/Src/stm32f1xx_it.c **** 	memset(BSPABoardReceiveBuff, 0x00, BSPABoardRx_BufferLen);
 621              		.loc 1 338 0
 622 0062 0F4E     		ldr	r6, .L51+24
 623 0064 2246     		mov	r2, r4
 624 0066 3146     		mov	r1, r6
 625 0068 0E48     		ldr	r0, .L51+28
 626 006a FFF7FEFF 		bl	memcpy
 627              	.LVL21:
 339:Core/Src/stm32f1xx_it.c **** 	BSPABoardRx_BufferLen = 0;
 628              		.loc 1 339 0
 629 006e 2246     		mov	r2, r4
 630 0070 3946     		mov	r1, r7
 631 0072 3046     		mov	r0, r6
 632 0074 FFF7FEFF 		bl	memset
 633              	.LVL22:
 340:Core/Src/stm32f1xx_it.c **** 	HAL_UART_Receive_DMA(&huart2,BSPABoardReceiveBuff,RXBUFFERSIZE);
 634              		.loc 1 340 0
ARM GAS  C:\Users\bertz\AppData\Local\Temp\ccAaqagT.s 			page 18


 635 0078 0B4B     		ldr	r3, .L51+32
 636 007a 1F70     		strb	r7, [r3]
 341:Core/Src/stm32f1xx_it.c ****   }
 637              		.loc 1 341 0
 638 007c 8022     		movs	r2, #128
 639 007e 3146     		mov	r1, r6
 640 0080 2846     		mov	r0, r5
 641 0082 FFF7FEFF 		bl	HAL_UART_Receive_DMA
 642              	.LVL23:
 643 0086 C3E7     		b	.L47
 644              	.L52:
 645              		.align	2
 646              	.L51:
 647 0088 00000000 		.word	huart2
 648 008c 00000000 		.word	.LANCHOR1
 649 0090 00000000 		.word	xScanBSPABoardSemaphore
 650 0094 04ED00E0 		.word	-536810236
 651 0098 00000000 		.word	hdma_usart2_rx
 652 009c 00000000 		.word	BSPABoardRx_InfoLen
 653 00a0 00000000 		.word	BSPABoardReceiveBuff
 654 00a4 00000000 		.word	BSPABoardReceiveInfo
 655 00a8 00000000 		.word	BSPABoardRx_BufferLen
 656              		.cfi_endproc
 657              	.LFE86:
 659              		.section	.text.USART3_IRQHandler,"ax",%progbits
 660              		.align	1
 661              		.global	USART3_IRQHandler
 662              		.syntax unified
 663              		.thumb
 664              		.thumb_func
 665              		.fpu softvfp
 667              	USART3_IRQHandler:
 668              	.LFB87:
 350:Core/Src/stm32f1xx_it.c **** 
 351:Core/Src/stm32f1xx_it.c **** /**
 352:Core/Src/stm32f1xx_it.c **** * @brief This function handles USART3 global interrupt.
 353:Core/Src/stm32f1xx_it.c **** */
 354:Core/Src/stm32f1xx_it.c **** void USART3_IRQHandler(void)
 355:Core/Src/stm32f1xx_it.c **** {
 669              		.loc 1 355 0
 670              		.cfi_startproc
 671              		@ args = 0, pretend = 0, frame = 8
 672              		@ frame_needed = 0, uses_anonymous_args = 0
 673 0000 F0B5     		push	{r4, r5, r6, r7, lr}
 674              	.LCFI16:
 675              		.cfi_def_cfa_offset 20
 676              		.cfi_offset 4, -20
 677              		.cfi_offset 5, -16
 678              		.cfi_offset 6, -12
 679              		.cfi_offset 7, -8
 680              		.cfi_offset 14, -4
 681 0002 83B0     		sub	sp, sp, #12
 682              	.LCFI17:
 683              		.cfi_def_cfa_offset 32
 356:Core/Src/stm32f1xx_it.c ****   /* USER CODE BEGIN USART3_IRQn 0 */
 357:Core/Src/stm32f1xx_it.c ****   uint32_t temp;
 358:Core/Src/stm32f1xx_it.c ****   static BaseType_t xHigherPriorityTaskWoken;
ARM GAS  C:\Users\bertz\AppData\Local\Temp\ccAaqagT.s 			page 19


 359:Core/Src/stm32f1xx_it.c ****   if(RESET != __HAL_UART_GET_FLAG(&huart3, UART_FLAG_IDLE))
 684              		.loc 1 359 0
 685 0004 204B     		ldr	r3, .L58
 686 0006 1B68     		ldr	r3, [r3]
 687 0008 1B68     		ldr	r3, [r3]
 688 000a 13F0100F 		tst	r3, #16
 689 000e 14D1     		bne	.L57
 690              	.L54:
 360:Core/Src/stm32f1xx_it.c ****   {
 361:Core/Src/stm32f1xx_it.c **** 	HAL_UART_DMAStop(&huart3);
 362:Core/Src/stm32f1xx_it.c **** 	temp = __HAL_DMA_GET_COUNTER(&hdma_usart3_rx);
 363:Core/Src/stm32f1xx_it.c ****     __HAL_UART_CLEAR_IDLEFLAG(&huart3);
 364:Core/Src/stm32f1xx_it.c **** 	BSPBBoardRx_BufferLen = RXBUFFERSIZE - temp;
 365:Core/Src/stm32f1xx_it.c **** 	BSPBBoardRx_InfoLen = BSPBBoardRx_BufferLen;
 366:Core/Src/stm32f1xx_it.c **** 	memcpy(BSPBBoardReceiveInfo,BSPBBoardReceiveBuff,BSPBBoardRx_BufferLen);
 367:Core/Src/stm32f1xx_it.c **** 	memset(BSPBBoardReceiveBuff, 0x00, BSPBBoardRx_BufferLen);
 368:Core/Src/stm32f1xx_it.c **** 	BSPBBoardRx_BufferLen = 0;
 369:Core/Src/stm32f1xx_it.c **** 	HAL_UART_Receive_DMA(&huart3,BSPBBoardReceiveBuff,RXBUFFERSIZE);
 370:Core/Src/stm32f1xx_it.c ****   }
 371:Core/Src/stm32f1xx_it.c ****   /* USER CODE END USART3_IRQn 0 */
 372:Core/Src/stm32f1xx_it.c ****   HAL_UART_IRQHandler(&huart3);
 691              		.loc 1 372 0
 692 0010 1D48     		ldr	r0, .L58
 693 0012 FFF7FEFF 		bl	HAL_UART_IRQHandler
 694              	.LVL24:
 373:Core/Src/stm32f1xx_it.c ****   /* USER CODE BEGIN USART3_IRQn 1 */
 374:Core/Src/stm32f1xx_it.c ****   xSemaphoreGiveFromISR(xScanBSPBBoardSemaphore, &xHigherPriorityTaskWoken);
 695              		.loc 1 374 0
 696 0016 1D4C     		ldr	r4, .L58+4
 697 0018 2146     		mov	r1, r4
 698 001a 1D4B     		ldr	r3, .L58+8
 699 001c 1868     		ldr	r0, [r3]
 700 001e FFF7FEFF 		bl	xQueueGiveFromISR
 701              	.LVL25:
 375:Core/Src/stm32f1xx_it.c ****   portEND_SWITCHING_ISR(xHigherPriorityTaskWoken);
 702              		.loc 1 375 0
 703 0022 2368     		ldr	r3, [r4]
 704 0024 3BB1     		cbz	r3, .L53
 705              		.loc 1 375 0 is_stmt 0 discriminator 1
 706 0026 1B4B     		ldr	r3, .L58+12
 707 0028 4FF08052 		mov	r2, #268435456
 708 002c 1A60     		str	r2, [r3]
 709              		.syntax unified
 710              	@ 375 "Core/Src/stm32f1xx_it.c" 1
 711 002e BFF34F8F 		dsb
 712              	@ 0 "" 2
 713              	@ 375 "Core/Src/stm32f1xx_it.c" 1
 714 0032 BFF36F8F 		isb
 715              	@ 0 "" 2
 716              		.thumb
 717              		.syntax unified
 718              	.L53:
 376:Core/Src/stm32f1xx_it.c ****   /* USER CODE END USART3_IRQn 1 */
 377:Core/Src/stm32f1xx_it.c **** }
 719              		.loc 1 377 0 is_stmt 1
 720 0036 03B0     		add	sp, sp, #12
 721              	.LCFI18:
ARM GAS  C:\Users\bertz\AppData\Local\Temp\ccAaqagT.s 			page 20


 722              		.cfi_remember_state
 723              		.cfi_def_cfa_offset 20
 724              		@ sp needed
 725 0038 F0BD     		pop	{r4, r5, r6, r7, pc}
 726              	.L57:
 727              	.LCFI19:
 728              		.cfi_restore_state
 361:Core/Src/stm32f1xx_it.c **** 	temp = __HAL_DMA_GET_COUNTER(&hdma_usart3_rx);
 729              		.loc 1 361 0
 730 003a 134D     		ldr	r5, .L58
 731 003c 2846     		mov	r0, r5
 732 003e FFF7FEFF 		bl	HAL_UART_DMAStop
 733              	.LVL26:
 362:Core/Src/stm32f1xx_it.c ****     __HAL_UART_CLEAR_IDLEFLAG(&huart3);
 734              		.loc 1 362 0
 735 0042 154B     		ldr	r3, .L58+16
 736 0044 1B68     		ldr	r3, [r3]
 737 0046 5C68     		ldr	r4, [r3, #4]
 738              	.LVL27:
 739              	.LBB4:
 363:Core/Src/stm32f1xx_it.c **** 	BSPBBoardRx_BufferLen = RXBUFFERSIZE - temp;
 740              		.loc 1 363 0
 741 0048 0027     		movs	r7, #0
 742 004a 0197     		str	r7, [sp, #4]
 743 004c 2B68     		ldr	r3, [r5]
 744 004e 1A68     		ldr	r2, [r3]
 745 0050 0192     		str	r2, [sp, #4]
 746 0052 5B68     		ldr	r3, [r3, #4]
 747 0054 0193     		str	r3, [sp, #4]
 748 0056 019B     		ldr	r3, [sp, #4]
 749              	.LBE4:
 364:Core/Src/stm32f1xx_it.c **** 	BSPBBoardRx_InfoLen = BSPBBoardRx_BufferLen;
 750              		.loc 1 364 0
 751 0058 C4F18004 		rsb	r4, r4, #128
 752              	.LVL28:
 753 005c E4B2     		uxtb	r4, r4
 365:Core/Src/stm32f1xx_it.c **** 	memcpy(BSPBBoardReceiveInfo,BSPBBoardReceiveBuff,BSPBBoardRx_BufferLen);
 754              		.loc 1 365 0
 755 005e 0F4B     		ldr	r3, .L58+20
 756 0060 1C70     		strb	r4, [r3]
 366:Core/Src/stm32f1xx_it.c **** 	memset(BSPBBoardReceiveBuff, 0x00, BSPBBoardRx_BufferLen);
 757              		.loc 1 366 0
 758 0062 0F4E     		ldr	r6, .L58+24
 759 0064 2246     		mov	r2, r4
 760 0066 3146     		mov	r1, r6
 761 0068 0E48     		ldr	r0, .L58+28
 762 006a FFF7FEFF 		bl	memcpy
 763              	.LVL29:
 367:Core/Src/stm32f1xx_it.c **** 	BSPBBoardRx_BufferLen = 0;
 764              		.loc 1 367 0
 765 006e 2246     		mov	r2, r4
 766 0070 3946     		mov	r1, r7
 767 0072 3046     		mov	r0, r6
 768 0074 FFF7FEFF 		bl	memset
 769              	.LVL30:
 368:Core/Src/stm32f1xx_it.c **** 	HAL_UART_Receive_DMA(&huart3,BSPBBoardReceiveBuff,RXBUFFERSIZE);
 770              		.loc 1 368 0
ARM GAS  C:\Users\bertz\AppData\Local\Temp\ccAaqagT.s 			page 21


 771 0078 0B4B     		ldr	r3, .L58+32
 772 007a 1F70     		strb	r7, [r3]
 369:Core/Src/stm32f1xx_it.c ****   }
 773              		.loc 1 369 0
 774 007c 8022     		movs	r2, #128
 775 007e 3146     		mov	r1, r6
 776 0080 2846     		mov	r0, r5
 777 0082 FFF7FEFF 		bl	HAL_UART_Receive_DMA
 778              	.LVL31:
 779 0086 C3E7     		b	.L54
 780              	.L59:
 781              		.align	2
 782              	.L58:
 783 0088 00000000 		.word	huart3
 784 008c 00000000 		.word	.LANCHOR2
 785 0090 00000000 		.word	xScanBSPBBoardSemaphore
 786 0094 04ED00E0 		.word	-536810236
 787 0098 00000000 		.word	hdma_usart3_rx
 788 009c 00000000 		.word	BSPBBoardRx_InfoLen
 789 00a0 00000000 		.word	BSPBBoardReceiveBuff
 790 00a4 00000000 		.word	BSPBBoardReceiveInfo
 791 00a8 00000000 		.word	BSPBBoardRx_BufferLen
 792              		.cfi_endproc
 793              	.LFE87:
 795              		.section	.text.TIM5_IRQHandler,"ax",%progbits
 796              		.align	1
 797              		.global	TIM5_IRQHandler
 798              		.syntax unified
 799              		.thumb
 800              		.thumb_func
 801              		.fpu softvfp
 803              	TIM5_IRQHandler:
 804              	.LFB88:
 378:Core/Src/stm32f1xx_it.c **** 
 379:Core/Src/stm32f1xx_it.c **** /**
 380:Core/Src/stm32f1xx_it.c **** * @brief This function handles TIM5 global interrupt.
 381:Core/Src/stm32f1xx_it.c **** */
 382:Core/Src/stm32f1xx_it.c **** void TIM5_IRQHandler(void)
 383:Core/Src/stm32f1xx_it.c **** {
 805              		.loc 1 383 0
 806              		.cfi_startproc
 807              		@ args = 0, pretend = 0, frame = 0
 808              		@ frame_needed = 0, uses_anonymous_args = 0
 809 0000 08B5     		push	{r3, lr}
 810              	.LCFI20:
 811              		.cfi_def_cfa_offset 8
 812              		.cfi_offset 3, -8
 813              		.cfi_offset 14, -4
 384:Core/Src/stm32f1xx_it.c ****   /* USER CODE BEGIN TIM5_IRQn 0 */
 385:Core/Src/stm32f1xx_it.c **** 
 386:Core/Src/stm32f1xx_it.c ****   /* USER CODE END TIM5_IRQn 0 */
 387:Core/Src/stm32f1xx_it.c ****   HAL_TIM_IRQHandler(&htim5);
 814              		.loc 1 387 0
 815 0002 0248     		ldr	r0, .L62
 816 0004 FFF7FEFF 		bl	HAL_TIM_IRQHandler
 817              	.LVL32:
 388:Core/Src/stm32f1xx_it.c ****   /* USER CODE BEGIN TIM5_IRQn 1 */
ARM GAS  C:\Users\bertz\AppData\Local\Temp\ccAaqagT.s 			page 22


 389:Core/Src/stm32f1xx_it.c **** 
 390:Core/Src/stm32f1xx_it.c ****   /* USER CODE END TIM5_IRQn 1 */
 391:Core/Src/stm32f1xx_it.c **** }
 818              		.loc 1 391 0
 819 0008 08BD     		pop	{r3, pc}
 820              	.L63:
 821 000a 00BF     		.align	2
 822              	.L62:
 823 000c 00000000 		.word	htim5
 824              		.cfi_endproc
 825              	.LFE88:
 827              		.section	.bss.xHigherPriorityTaskWoken.8401,"aw",%nobits
 828              		.align	2
 829              		.set	.LANCHOR0,. + 0
 832              	xHigherPriorityTaskWoken.8401:
 833 0000 00000000 		.space	4
 834              		.section	.bss.xHigherPriorityTaskWoken.8407,"aw",%nobits
 835              		.align	2
 836              		.set	.LANCHOR1,. + 0
 839              	xHigherPriorityTaskWoken.8407:
 840 0000 00000000 		.space	4
 841              		.section	.bss.xHigherPriorityTaskWoken.8413,"aw",%nobits
 842              		.align	2
 843              		.set	.LANCHOR2,. + 0
 846              	xHigherPriorityTaskWoken.8413:
 847 0000 00000000 		.space	4
 848              		.text
 849              	.Letext0:
 850              		.file 2 "c:\\program files (x86)\\gnu tools arm embedded\\7 2018-q2-update\\arm-none-eabi\\include
 851              		.file 3 "c:\\program files (x86)\\gnu tools arm embedded\\7 2018-q2-update\\arm-none-eabi\\include
 852              		.file 4 "Drivers/CMSIS/Include/core_cm3.h"
 853              		.file 5 "Drivers/CMSIS/Device/ST/STM32F1xx/Include/system_stm32f1xx.h"
 854              		.file 6 "Drivers/CMSIS/Device/ST/STM32F1xx/Include/stm32f103xe.h"
 855              		.file 7 "c:\\program files (x86)\\gnu tools arm embedded\\7 2018-q2-update\\arm-none-eabi\\include
 856              		.file 8 "c:\\program files (x86)\\gnu tools arm embedded\\7 2018-q2-update\\arm-none-eabi\\include
 857              		.file 9 "c:\\program files (x86)\\gnu tools arm embedded\\7 2018-q2-update\\lib\\gcc\\arm-none-eab
 858              		.file 10 "c:\\program files (x86)\\gnu tools arm embedded\\7 2018-q2-update\\arm-none-eabi\\includ
 859              		.file 11 "Drivers/CMSIS/Device/ST/STM32F1xx/Include/stm32f1xx.h"
 860              		.file 12 "Drivers/STM32F1xx_HAL_Driver/Inc/stm32f1xx_hal_def.h"
 861              		.file 13 "Drivers/STM32F1xx_HAL_Driver/Inc/stm32f1xx_hal_dma.h"
 862              		.file 14 "Drivers/STM32F1xx_HAL_Driver/Inc/stm32f1xx_hal_tim.h"
 863              		.file 15 "Drivers/STM32F1xx_HAL_Driver/Inc/stm32f1xx_hal_uart.h"
 864              		.file 16 "Middlewares/Third_Party/FreeRTOS/Source/portable/GCC/ARM_CM3/portmacro.h"
 865              		.file 17 "Middlewares/Third_Party/FreeRTOS/Source/include/queue.h"
 866              		.file 18 "Middlewares/Third_Party/FreeRTOS/Source/include/semphr.h"
 867              		.file 19 "Core/Inc/usart.h"
 868              		.file 20 "<built-in>"
 869              		.file 21 "Drivers/STM32F1xx_HAL_Driver/Inc/stm32f1xx_hal_gpio.h"
 870              		.file 22 "Middlewares/Third_Party/FreeRTOS/Source/CMSIS_RTOS/cmsis_os.h"
ARM GAS  C:\Users\bertz\AppData\Local\Temp\ccAaqagT.s 			page 23

