ARM GAS  /tmp/ccSIrBOe.s 			page 1


   1              		.cpu cortex-m3
   2              		.eabi_attribute 20, 1
   3              		.eabi_attribute 21, 1
   4              		.eabi_attribute 23, 3
   5              		.eabi_attribute 24, 1
   6              		.eabi_attribute 25, 1
   7              		.eabi_attribute 26, 1
   8              		.eabi_attribute 30, 1
   9              		.eabi_attribute 34, 1
  10              		.eabi_attribute 18, 4
  11              		.file	"stm32f1xx_it.c"
  12              		.text
  13              	.Ltext0:
  14              		.cfi_sections	.debug_frame
  15              		.section	.text.NMI_Handler,"ax",%progbits
  16              		.align	1
  17              		.global	NMI_Handler
  18              		.syntax unified
  19              		.thumb
  20              		.thumb_func
  21              		.fpu softvfp
  23              	NMI_Handler:
  24              	.LFB69:
  25              		.file 1 "Core/Src/stm32f1xx_it.c"
   1:Core/Src/stm32f1xx_it.c **** /**
   2:Core/Src/stm32f1xx_it.c ****   ******************************************************************************
   3:Core/Src/stm32f1xx_it.c ****   * @file    stm32f1xx_it.c
   4:Core/Src/stm32f1xx_it.c ****   * @brief   Interrupt Service Routines.
   5:Core/Src/stm32f1xx_it.c ****   ******************************************************************************
   6:Core/Src/stm32f1xx_it.c ****   *
   7:Core/Src/stm32f1xx_it.c ****   * COPYRIGHT(c) 2018 STMicroelectronics
   8:Core/Src/stm32f1xx_it.c ****   *
   9:Core/Src/stm32f1xx_it.c ****   * Redistribution and use in source and binary forms, with or without modification,
  10:Core/Src/stm32f1xx_it.c ****   * are permitted provided that the following conditions are met:
  11:Core/Src/stm32f1xx_it.c ****   *   1. Redistributions of source code must retain the above copyright notice,
  12:Core/Src/stm32f1xx_it.c ****   *      this list of conditions and the following disclaimer.
  13:Core/Src/stm32f1xx_it.c ****   *   2. Redistributions in binary form must reproduce the above copyright notice,
  14:Core/Src/stm32f1xx_it.c ****   *      this list of conditions and the following disclaimer in the documentation
  15:Core/Src/stm32f1xx_it.c ****   *      and/or other materials provided with the distribution.
  16:Core/Src/stm32f1xx_it.c ****   *   3. Neither the name of STMicroelectronics nor the names of its contributors
  17:Core/Src/stm32f1xx_it.c ****   *      may be used to endorse or promote products derived from this software
  18:Core/Src/stm32f1xx_it.c ****   *      without specific prior written permission.
  19:Core/Src/stm32f1xx_it.c ****   *
  20:Core/Src/stm32f1xx_it.c ****   * THIS SOFTWARE IS PROVIDED BY THE COPYRIGHT HOLDERS AND CONTRIBUTORS "AS IS"
  21:Core/Src/stm32f1xx_it.c ****   * AND ANY EXPRESS OR IMPLIED WARRANTIES, INCLUDING, BUT NOT LIMITED TO, THE
  22:Core/Src/stm32f1xx_it.c ****   * IMPLIED WARRANTIES OF MERCHANTABILITY AND FITNESS FOR A PARTICULAR PURPOSE ARE
  23:Core/Src/stm32f1xx_it.c ****   * DISCLAIMED. IN NO EVENT SHALL THE COPYRIGHT HOLDER OR CONTRIBUTORS BE LIABLE
  24:Core/Src/stm32f1xx_it.c ****   * FOR ANY DIRECT, INDIRECT, INCIDENTAL, SPECIAL, EXEMPLARY, OR CONSEQUENTIAL
  25:Core/Src/stm32f1xx_it.c ****   * DAMAGES (INCLUDING, BUT NOT LIMITED TO, PROCUREMENT OF SUBSTITUTE GOODS OR
  26:Core/Src/stm32f1xx_it.c ****   * SERVICES; LOSS OF USE, DATA, OR PROFITS; OR BUSINESS INTERRUPTION) HOWEVER
  27:Core/Src/stm32f1xx_it.c ****   * CAUSED AND ON ANY THEORY OF LIABILITY, WHETHER IN CONTRACT, STRICT LIABILITY,
  28:Core/Src/stm32f1xx_it.c ****   * OR TORT (INCLUDING NEGLIGENCE OR OTHERWISE) ARISING IN ANY WAY OUT OF THE USE
  29:Core/Src/stm32f1xx_it.c ****   * OF THIS SOFTWARE, EVEN IF ADVISED OF THE POSSIBILITY OF SUCH DAMAGE.
  30:Core/Src/stm32f1xx_it.c ****   *
  31:Core/Src/stm32f1xx_it.c ****   ******************************************************************************
  32:Core/Src/stm32f1xx_it.c ****   */
  33:Core/Src/stm32f1xx_it.c **** /* Includes ------------------------------------------------------------------*/
ARM GAS  /tmp/ccSIrBOe.s 			page 2


  34:Core/Src/stm32f1xx_it.c **** #include "stm32f1xx_hal.h"
  35:Core/Src/stm32f1xx_it.c **** #include "stm32f1xx.h"
  36:Core/Src/stm32f1xx_it.c **** #include "stm32f1xx_it.h"
  37:Core/Src/stm32f1xx_it.c **** #include "cmsis_os.h"
  38:Core/Src/stm32f1xx_it.c **** 
  39:Core/Src/stm32f1xx_it.c **** /* USER CODE BEGIN 0 */
  40:Core/Src/stm32f1xx_it.c **** 
  41:Core/Src/stm32f1xx_it.c **** /* USER CODE END 0 */
  42:Core/Src/stm32f1xx_it.c **** 
  43:Core/Src/stm32f1xx_it.c **** /* External variables --------------------------------------------------------*/
  44:Core/Src/stm32f1xx_it.c **** extern DMA_HandleTypeDef hdma_adc1;
  45:Core/Src/stm32f1xx_it.c **** extern TIM_HandleTypeDef htim4;
  46:Core/Src/stm32f1xx_it.c **** extern TIM_HandleTypeDef htim5;
  47:Core/Src/stm32f1xx_it.c **** extern DMA_HandleTypeDef hdma_usart1_rx;
  48:Core/Src/stm32f1xx_it.c **** extern DMA_HandleTypeDef hdma_usart2_rx;
  49:Core/Src/stm32f1xx_it.c **** extern DMA_HandleTypeDef hdma_usart3_rx;
  50:Core/Src/stm32f1xx_it.c **** extern UART_HandleTypeDef huart1;
  51:Core/Src/stm32f1xx_it.c **** extern UART_HandleTypeDef huart2;
  52:Core/Src/stm32f1xx_it.c **** extern UART_HandleTypeDef huart3;
  53:Core/Src/stm32f1xx_it.c **** 
  54:Core/Src/stm32f1xx_it.c **** extern TIM_HandleTypeDef htim1;
  55:Core/Src/stm32f1xx_it.c **** 
  56:Core/Src/stm32f1xx_it.c **** /******************************************************************************/
  57:Core/Src/stm32f1xx_it.c **** /*            Cortex-M3 Processor Interruption and Exception Handlers         */ 
  58:Core/Src/stm32f1xx_it.c **** /******************************************************************************/
  59:Core/Src/stm32f1xx_it.c **** 
  60:Core/Src/stm32f1xx_it.c **** /**
  61:Core/Src/stm32f1xx_it.c **** * @brief This function handles Non maskable interrupt.
  62:Core/Src/stm32f1xx_it.c **** */
  63:Core/Src/stm32f1xx_it.c **** void NMI_Handler(void)
  64:Core/Src/stm32f1xx_it.c **** {
  26              		.loc 1 64 0
  27              		.cfi_startproc
  28              		@ args = 0, pretend = 0, frame = 0
  29              		@ frame_needed = 0, uses_anonymous_args = 0
  30              		@ link register save eliminated.
  31 0000 7047     		bx	lr
  32              		.cfi_endproc
  33              	.LFE69:
  35              		.section	.text.HardFault_Handler,"ax",%progbits
  36              		.align	1
  37              		.global	HardFault_Handler
  38              		.syntax unified
  39              		.thumb
  40              		.thumb_func
  41              		.fpu softvfp
  43              	HardFault_Handler:
  44              	.LFB70:
  65:Core/Src/stm32f1xx_it.c ****   /* USER CODE BEGIN NonMaskableInt_IRQn 0 */
  66:Core/Src/stm32f1xx_it.c **** 
  67:Core/Src/stm32f1xx_it.c ****   /* USER CODE END NonMaskableInt_IRQn 0 */
  68:Core/Src/stm32f1xx_it.c ****   /* USER CODE BEGIN NonMaskableInt_IRQn 1 */
  69:Core/Src/stm32f1xx_it.c **** 
  70:Core/Src/stm32f1xx_it.c ****   /* USER CODE END NonMaskableInt_IRQn 1 */
  71:Core/Src/stm32f1xx_it.c **** }
  72:Core/Src/stm32f1xx_it.c **** 
  73:Core/Src/stm32f1xx_it.c **** /**
ARM GAS  /tmp/ccSIrBOe.s 			page 3


  74:Core/Src/stm32f1xx_it.c **** * @brief This function handles Hard fault interrupt.
  75:Core/Src/stm32f1xx_it.c **** */
  76:Core/Src/stm32f1xx_it.c **** void HardFault_Handler(void)
  77:Core/Src/stm32f1xx_it.c **** {
  45              		.loc 1 77 0
  46              		.cfi_startproc
  47              		@ Volatile: function does not return.
  48              		@ args = 0, pretend = 0, frame = 0
  49              		@ frame_needed = 0, uses_anonymous_args = 0
  50              		@ link register save eliminated.
  51              	.L3:
  52 0000 FEE7     		b	.L3
  53              		.cfi_endproc
  54              	.LFE70:
  56              		.section	.text.MemManage_Handler,"ax",%progbits
  57              		.align	1
  58              		.global	MemManage_Handler
  59              		.syntax unified
  60              		.thumb
  61              		.thumb_func
  62              		.fpu softvfp
  64              	MemManage_Handler:
  65              	.LFB71:
  78:Core/Src/stm32f1xx_it.c ****   /* USER CODE BEGIN HardFault_IRQn 0 */
  79:Core/Src/stm32f1xx_it.c **** 
  80:Core/Src/stm32f1xx_it.c ****   /* USER CODE END HardFault_IRQn 0 */
  81:Core/Src/stm32f1xx_it.c ****   while (1)
  82:Core/Src/stm32f1xx_it.c ****   {
  83:Core/Src/stm32f1xx_it.c ****     /* USER CODE BEGIN W1_HardFault_IRQn 0 */
  84:Core/Src/stm32f1xx_it.c ****     /* USER CODE END W1_HardFault_IRQn 0 */
  85:Core/Src/stm32f1xx_it.c ****   }
  86:Core/Src/stm32f1xx_it.c ****   /* USER CODE BEGIN HardFault_IRQn 1 */
  87:Core/Src/stm32f1xx_it.c **** 
  88:Core/Src/stm32f1xx_it.c ****   /* USER CODE END HardFault_IRQn 1 */
  89:Core/Src/stm32f1xx_it.c **** }
  90:Core/Src/stm32f1xx_it.c **** 
  91:Core/Src/stm32f1xx_it.c **** /**
  92:Core/Src/stm32f1xx_it.c **** * @brief This function handles Memory management fault.
  93:Core/Src/stm32f1xx_it.c **** */
  94:Core/Src/stm32f1xx_it.c **** void MemManage_Handler(void)
  95:Core/Src/stm32f1xx_it.c **** {
  66              		.loc 1 95 0
  67              		.cfi_startproc
  68              		@ Volatile: function does not return.
  69              		@ args = 0, pretend = 0, frame = 0
  70              		@ frame_needed = 0, uses_anonymous_args = 0
  71              		@ link register save eliminated.
  72              	.L5:
  73 0000 FEE7     		b	.L5
  74              		.cfi_endproc
  75              	.LFE71:
  77              		.section	.text.BusFault_Handler,"ax",%progbits
  78              		.align	1
  79              		.global	BusFault_Handler
  80              		.syntax unified
  81              		.thumb
  82              		.thumb_func
ARM GAS  /tmp/ccSIrBOe.s 			page 4


  83              		.fpu softvfp
  85              	BusFault_Handler:
  86              	.LFB72:
  96:Core/Src/stm32f1xx_it.c ****   /* USER CODE BEGIN MemoryManagement_IRQn 0 */
  97:Core/Src/stm32f1xx_it.c **** 
  98:Core/Src/stm32f1xx_it.c ****   /* USER CODE END MemoryManagement_IRQn 0 */
  99:Core/Src/stm32f1xx_it.c ****   while (1)
 100:Core/Src/stm32f1xx_it.c ****   {
 101:Core/Src/stm32f1xx_it.c ****     /* USER CODE BEGIN W1_MemoryManagement_IRQn 0 */
 102:Core/Src/stm32f1xx_it.c ****     /* USER CODE END W1_MemoryManagement_IRQn 0 */
 103:Core/Src/stm32f1xx_it.c ****   }
 104:Core/Src/stm32f1xx_it.c ****   /* USER CODE BEGIN MemoryManagement_IRQn 1 */
 105:Core/Src/stm32f1xx_it.c **** 
 106:Core/Src/stm32f1xx_it.c ****   /* USER CODE END MemoryManagement_IRQn 1 */
 107:Core/Src/stm32f1xx_it.c **** }
 108:Core/Src/stm32f1xx_it.c **** 
 109:Core/Src/stm32f1xx_it.c **** /**
 110:Core/Src/stm32f1xx_it.c **** * @brief This function handles Prefetch fault, memory access fault.
 111:Core/Src/stm32f1xx_it.c **** */
 112:Core/Src/stm32f1xx_it.c **** void BusFault_Handler(void)
 113:Core/Src/stm32f1xx_it.c **** {
  87              		.loc 1 113 0
  88              		.cfi_startproc
  89              		@ Volatile: function does not return.
  90              		@ args = 0, pretend = 0, frame = 0
  91              		@ frame_needed = 0, uses_anonymous_args = 0
  92              		@ link register save eliminated.
  93              	.L7:
  94 0000 FEE7     		b	.L7
  95              		.cfi_endproc
  96              	.LFE72:
  98              		.section	.text.UsageFault_Handler,"ax",%progbits
  99              		.align	1
 100              		.global	UsageFault_Handler
 101              		.syntax unified
 102              		.thumb
 103              		.thumb_func
 104              		.fpu softvfp
 106              	UsageFault_Handler:
 107              	.LFB73:
 114:Core/Src/stm32f1xx_it.c ****   /* USER CODE BEGIN BusFault_IRQn 0 */
 115:Core/Src/stm32f1xx_it.c **** 
 116:Core/Src/stm32f1xx_it.c ****   /* USER CODE END BusFault_IRQn 0 */
 117:Core/Src/stm32f1xx_it.c ****   while (1)
 118:Core/Src/stm32f1xx_it.c ****   {
 119:Core/Src/stm32f1xx_it.c ****     /* USER CODE BEGIN W1_BusFault_IRQn 0 */
 120:Core/Src/stm32f1xx_it.c ****     /* USER CODE END W1_BusFault_IRQn 0 */
 121:Core/Src/stm32f1xx_it.c ****   }
 122:Core/Src/stm32f1xx_it.c ****   /* USER CODE BEGIN BusFault_IRQn 1 */
 123:Core/Src/stm32f1xx_it.c **** 
 124:Core/Src/stm32f1xx_it.c ****   /* USER CODE END BusFault_IRQn 1 */
 125:Core/Src/stm32f1xx_it.c **** }
 126:Core/Src/stm32f1xx_it.c **** 
 127:Core/Src/stm32f1xx_it.c **** /**
 128:Core/Src/stm32f1xx_it.c **** * @brief This function handles Undefined instruction or illegal state.
 129:Core/Src/stm32f1xx_it.c **** */
 130:Core/Src/stm32f1xx_it.c **** void UsageFault_Handler(void)
ARM GAS  /tmp/ccSIrBOe.s 			page 5


 131:Core/Src/stm32f1xx_it.c **** {
 108              		.loc 1 131 0
 109              		.cfi_startproc
 110              		@ Volatile: function does not return.
 111              		@ args = 0, pretend = 0, frame = 0
 112              		@ frame_needed = 0, uses_anonymous_args = 0
 113              		@ link register save eliminated.
 114              	.L9:
 115 0000 FEE7     		b	.L9
 116              		.cfi_endproc
 117              	.LFE73:
 119              		.section	.text.DebugMon_Handler,"ax",%progbits
 120              		.align	1
 121              		.global	DebugMon_Handler
 122              		.syntax unified
 123              		.thumb
 124              		.thumb_func
 125              		.fpu softvfp
 127              	DebugMon_Handler:
 128              	.LFB74:
 132:Core/Src/stm32f1xx_it.c ****   /* USER CODE BEGIN UsageFault_IRQn 0 */
 133:Core/Src/stm32f1xx_it.c **** 
 134:Core/Src/stm32f1xx_it.c ****   /* USER CODE END UsageFault_IRQn 0 */
 135:Core/Src/stm32f1xx_it.c ****   while (1)
 136:Core/Src/stm32f1xx_it.c ****   {
 137:Core/Src/stm32f1xx_it.c ****     /* USER CODE BEGIN W1_UsageFault_IRQn 0 */
 138:Core/Src/stm32f1xx_it.c ****     /* USER CODE END W1_UsageFault_IRQn 0 */
 139:Core/Src/stm32f1xx_it.c ****   }
 140:Core/Src/stm32f1xx_it.c ****   /* USER CODE BEGIN UsageFault_IRQn 1 */
 141:Core/Src/stm32f1xx_it.c **** 
 142:Core/Src/stm32f1xx_it.c ****   /* USER CODE END UsageFault_IRQn 1 */
 143:Core/Src/stm32f1xx_it.c **** }
 144:Core/Src/stm32f1xx_it.c **** 
 145:Core/Src/stm32f1xx_it.c **** /**
 146:Core/Src/stm32f1xx_it.c **** * @brief This function handles Debug monitor.
 147:Core/Src/stm32f1xx_it.c **** */
 148:Core/Src/stm32f1xx_it.c **** void DebugMon_Handler(void)
 149:Core/Src/stm32f1xx_it.c **** {
 129              		.loc 1 149 0
 130              		.cfi_startproc
 131              		@ args = 0, pretend = 0, frame = 0
 132              		@ frame_needed = 0, uses_anonymous_args = 0
 133              		@ link register save eliminated.
 134 0000 7047     		bx	lr
 135              		.cfi_endproc
 136              	.LFE74:
 138              		.section	.text.SysTick_Handler,"ax",%progbits
 139              		.align	1
 140              		.global	SysTick_Handler
 141              		.syntax unified
 142              		.thumb
 143              		.thumb_func
 144              		.fpu softvfp
 146              	SysTick_Handler:
 147              	.LFB75:
 150:Core/Src/stm32f1xx_it.c ****   /* USER CODE BEGIN DebugMonitor_IRQn 0 */
 151:Core/Src/stm32f1xx_it.c **** 
ARM GAS  /tmp/ccSIrBOe.s 			page 6


 152:Core/Src/stm32f1xx_it.c ****   /* USER CODE END DebugMonitor_IRQn 0 */
 153:Core/Src/stm32f1xx_it.c ****   /* USER CODE BEGIN DebugMonitor_IRQn 1 */
 154:Core/Src/stm32f1xx_it.c **** 
 155:Core/Src/stm32f1xx_it.c ****   /* USER CODE END DebugMonitor_IRQn 1 */
 156:Core/Src/stm32f1xx_it.c **** }
 157:Core/Src/stm32f1xx_it.c **** 
 158:Core/Src/stm32f1xx_it.c **** /**
 159:Core/Src/stm32f1xx_it.c **** * @brief This function handles System tick timer.
 160:Core/Src/stm32f1xx_it.c **** */
 161:Core/Src/stm32f1xx_it.c **** void SysTick_Handler(void)
 162:Core/Src/stm32f1xx_it.c **** {
 148              		.loc 1 162 0
 149              		.cfi_startproc
 150              		@ args = 0, pretend = 0, frame = 0
 151              		@ frame_needed = 0, uses_anonymous_args = 0
 152              		.loc 1 162 0
 153 0000 08B5     		push	{r3, lr}
 154              	.LCFI0:
 155              		.cfi_def_cfa_offset 8
 156              		.cfi_offset 3, -8
 157              		.cfi_offset 14, -4
 163:Core/Src/stm32f1xx_it.c ****   /* USER CODE BEGIN SysTick_IRQn 0 */
 164:Core/Src/stm32f1xx_it.c **** 
 165:Core/Src/stm32f1xx_it.c ****   /* USER CODE END SysTick_IRQn 0 */
 166:Core/Src/stm32f1xx_it.c ****   osSystickHandler();
 158              		.loc 1 166 0
 159 0002 FFF7FEFF 		bl	osSystickHandler
 160              	.LVL0:
 161 0006 08BD     		pop	{r3, pc}
 162              		.cfi_endproc
 163              	.LFE75:
 165              		.section	.text.EXTI4_IRQHandler,"ax",%progbits
 166              		.align	1
 167              		.global	EXTI4_IRQHandler
 168              		.syntax unified
 169              		.thumb
 170              		.thumb_func
 171              		.fpu softvfp
 173              	EXTI4_IRQHandler:
 174              	.LFB76:
 167:Core/Src/stm32f1xx_it.c ****   /* USER CODE BEGIN SysTick_IRQn 1 */
 168:Core/Src/stm32f1xx_it.c **** 
 169:Core/Src/stm32f1xx_it.c ****   /* USER CODE END SysTick_IRQn 1 */
 170:Core/Src/stm32f1xx_it.c **** }
 171:Core/Src/stm32f1xx_it.c **** 
 172:Core/Src/stm32f1xx_it.c **** /******************************************************************************/
 173:Core/Src/stm32f1xx_it.c **** /* STM32F1xx Peripheral Interrupt Handlers                                    */
 174:Core/Src/stm32f1xx_it.c **** /* Add here the Interrupt Handlers for the used peripherals.                  */
 175:Core/Src/stm32f1xx_it.c **** /* For the available peripheral interrupt handler names,                      */
 176:Core/Src/stm32f1xx_it.c **** /* please refer to the startup file (startup_stm32f1xx.s).                    */
 177:Core/Src/stm32f1xx_it.c **** /******************************************************************************/
 178:Core/Src/stm32f1xx_it.c **** 
 179:Core/Src/stm32f1xx_it.c **** /**
 180:Core/Src/stm32f1xx_it.c **** * @brief This function handles EXTI line4 interrupt.
 181:Core/Src/stm32f1xx_it.c **** */
 182:Core/Src/stm32f1xx_it.c **** void EXTI4_IRQHandler(void)
 183:Core/Src/stm32f1xx_it.c **** {
ARM GAS  /tmp/ccSIrBOe.s 			page 7


 175              		.loc 1 183 0
 176              		.cfi_startproc
 177              		@ args = 0, pretend = 0, frame = 0
 178              		@ frame_needed = 0, uses_anonymous_args = 0
 179 0000 08B5     		push	{r3, lr}
 180              	.LCFI1:
 181              		.cfi_def_cfa_offset 8
 182              		.cfi_offset 3, -8
 183              		.cfi_offset 14, -4
 184:Core/Src/stm32f1xx_it.c ****   /* USER CODE BEGIN EXTI4_IRQn 0 */
 185:Core/Src/stm32f1xx_it.c **** 
 186:Core/Src/stm32f1xx_it.c ****   /* USER CODE END EXTI4_IRQn 0 */
 187:Core/Src/stm32f1xx_it.c ****   HAL_GPIO_EXTI_IRQHandler(GPIO_PIN_4);
 184              		.loc 1 187 0
 185 0002 1020     		movs	r0, #16
 186 0004 FFF7FEFF 		bl	HAL_GPIO_EXTI_IRQHandler
 187              	.LVL1:
 188 0008 08BD     		pop	{r3, pc}
 189              		.cfi_endproc
 190              	.LFE76:
 192              		.section	.text.DMA1_Channel1_IRQHandler,"ax",%progbits
 193              		.align	1
 194              		.global	DMA1_Channel1_IRQHandler
 195              		.syntax unified
 196              		.thumb
 197              		.thumb_func
 198              		.fpu softvfp
 200              	DMA1_Channel1_IRQHandler:
 201              	.LFB77:
 188:Core/Src/stm32f1xx_it.c ****   /* USER CODE BEGIN EXTI4_IRQn 1 */
 189:Core/Src/stm32f1xx_it.c **** 
 190:Core/Src/stm32f1xx_it.c ****   /* USER CODE END EXTI4_IRQn 1 */
 191:Core/Src/stm32f1xx_it.c **** }
 192:Core/Src/stm32f1xx_it.c **** 
 193:Core/Src/stm32f1xx_it.c **** /**
 194:Core/Src/stm32f1xx_it.c **** * @brief This function handles DMA1 channel1 global interrupt.
 195:Core/Src/stm32f1xx_it.c **** */
 196:Core/Src/stm32f1xx_it.c **** void DMA1_Channel1_IRQHandler(void)
 197:Core/Src/stm32f1xx_it.c **** {
 202              		.loc 1 197 0
 203              		.cfi_startproc
 204              		@ args = 0, pretend = 0, frame = 0
 205              		@ frame_needed = 0, uses_anonymous_args = 0
 206 0000 08B5     		push	{r3, lr}
 207              	.LCFI2:
 208              		.cfi_def_cfa_offset 8
 209              		.cfi_offset 3, -8
 210              		.cfi_offset 14, -4
 198:Core/Src/stm32f1xx_it.c ****   /* USER CODE BEGIN DMA1_Channel1_IRQn 0 */
 199:Core/Src/stm32f1xx_it.c **** 
 200:Core/Src/stm32f1xx_it.c ****   /* USER CODE END DMA1_Channel1_IRQn 0 */
 201:Core/Src/stm32f1xx_it.c ****   HAL_DMA_IRQHandler(&hdma_adc1);
 211              		.loc 1 201 0
 212 0002 0248     		ldr	r0, .L17
 213 0004 FFF7FEFF 		bl	HAL_DMA_IRQHandler
 214              	.LVL2:
 215 0008 08BD     		pop	{r3, pc}
ARM GAS  /tmp/ccSIrBOe.s 			page 8


 216              	.L18:
 217 000a 00BF     		.align	2
 218              	.L17:
 219 000c 00000000 		.word	hdma_adc1
 220              		.cfi_endproc
 221              	.LFE77:
 223              		.section	.text.DMA1_Channel3_IRQHandler,"ax",%progbits
 224              		.align	1
 225              		.global	DMA1_Channel3_IRQHandler
 226              		.syntax unified
 227              		.thumb
 228              		.thumb_func
 229              		.fpu softvfp
 231              	DMA1_Channel3_IRQHandler:
 232              	.LFB78:
 202:Core/Src/stm32f1xx_it.c ****   /* USER CODE BEGIN DMA1_Channel1_IRQn 1 */
 203:Core/Src/stm32f1xx_it.c **** 
 204:Core/Src/stm32f1xx_it.c ****   /* USER CODE END DMA1_Channel1_IRQn 1 */
 205:Core/Src/stm32f1xx_it.c **** }
 206:Core/Src/stm32f1xx_it.c **** 
 207:Core/Src/stm32f1xx_it.c **** /**
 208:Core/Src/stm32f1xx_it.c **** * @brief This function handles DMA1 channel3 global interrupt.
 209:Core/Src/stm32f1xx_it.c **** */
 210:Core/Src/stm32f1xx_it.c **** void DMA1_Channel3_IRQHandler(void)
 211:Core/Src/stm32f1xx_it.c **** {
 233              		.loc 1 211 0
 234              		.cfi_startproc
 235              		@ args = 0, pretend = 0, frame = 0
 236              		@ frame_needed = 0, uses_anonymous_args = 0
 237 0000 08B5     		push	{r3, lr}
 238              	.LCFI3:
 239              		.cfi_def_cfa_offset 8
 240              		.cfi_offset 3, -8
 241              		.cfi_offset 14, -4
 212:Core/Src/stm32f1xx_it.c ****   /* USER CODE BEGIN DMA1_Channel3_IRQn 0 */
 213:Core/Src/stm32f1xx_it.c **** 
 214:Core/Src/stm32f1xx_it.c ****   /* USER CODE END DMA1_Channel3_IRQn 0 */
 215:Core/Src/stm32f1xx_it.c ****   HAL_DMA_IRQHandler(&hdma_usart3_rx);
 242              		.loc 1 215 0
 243 0002 0248     		ldr	r0, .L21
 244 0004 FFF7FEFF 		bl	HAL_DMA_IRQHandler
 245              	.LVL3:
 246 0008 08BD     		pop	{r3, pc}
 247              	.L22:
 248 000a 00BF     		.align	2
 249              	.L21:
 250 000c 00000000 		.word	hdma_usart3_rx
 251              		.cfi_endproc
 252              	.LFE78:
 254              		.section	.text.DMA1_Channel5_IRQHandler,"ax",%progbits
 255              		.align	1
 256              		.global	DMA1_Channel5_IRQHandler
 257              		.syntax unified
 258              		.thumb
 259              		.thumb_func
 260              		.fpu softvfp
 262              	DMA1_Channel5_IRQHandler:
ARM GAS  /tmp/ccSIrBOe.s 			page 9


 263              	.LFB79:
 216:Core/Src/stm32f1xx_it.c ****   /* USER CODE BEGIN DMA1_Channel3_IRQn 1 */
 217:Core/Src/stm32f1xx_it.c **** 
 218:Core/Src/stm32f1xx_it.c ****   /* USER CODE END DMA1_Channel3_IRQn 1 */
 219:Core/Src/stm32f1xx_it.c **** }
 220:Core/Src/stm32f1xx_it.c **** 
 221:Core/Src/stm32f1xx_it.c **** /**
 222:Core/Src/stm32f1xx_it.c **** * @brief This function handles DMA1 channel5 global interrupt.
 223:Core/Src/stm32f1xx_it.c **** */
 224:Core/Src/stm32f1xx_it.c **** void DMA1_Channel5_IRQHandler(void)
 225:Core/Src/stm32f1xx_it.c **** {
 264              		.loc 1 225 0
 265              		.cfi_startproc
 266              		@ args = 0, pretend = 0, frame = 0
 267              		@ frame_needed = 0, uses_anonymous_args = 0
 268 0000 08B5     		push	{r3, lr}
 269              	.LCFI4:
 270              		.cfi_def_cfa_offset 8
 271              		.cfi_offset 3, -8
 272              		.cfi_offset 14, -4
 226:Core/Src/stm32f1xx_it.c ****   /* USER CODE BEGIN DMA1_Channel5_IRQn 0 */
 227:Core/Src/stm32f1xx_it.c **** 
 228:Core/Src/stm32f1xx_it.c ****   /* USER CODE END DMA1_Channel5_IRQn 0 */
 229:Core/Src/stm32f1xx_it.c ****   HAL_DMA_IRQHandler(&hdma_usart1_rx);
 273              		.loc 1 229 0
 274 0002 0248     		ldr	r0, .L25
 275 0004 FFF7FEFF 		bl	HAL_DMA_IRQHandler
 276              	.LVL4:
 277 0008 08BD     		pop	{r3, pc}
 278              	.L26:
 279 000a 00BF     		.align	2
 280              	.L25:
 281 000c 00000000 		.word	hdma_usart1_rx
 282              		.cfi_endproc
 283              	.LFE79:
 285              		.section	.text.DMA1_Channel6_IRQHandler,"ax",%progbits
 286              		.align	1
 287              		.global	DMA1_Channel6_IRQHandler
 288              		.syntax unified
 289              		.thumb
 290              		.thumb_func
 291              		.fpu softvfp
 293              	DMA1_Channel6_IRQHandler:
 294              	.LFB80:
 230:Core/Src/stm32f1xx_it.c ****   /* USER CODE BEGIN DMA1_Channel5_IRQn 1 */
 231:Core/Src/stm32f1xx_it.c **** 
 232:Core/Src/stm32f1xx_it.c ****   /* USER CODE END DMA1_Channel5_IRQn 1 */
 233:Core/Src/stm32f1xx_it.c **** }
 234:Core/Src/stm32f1xx_it.c **** 
 235:Core/Src/stm32f1xx_it.c **** /**
 236:Core/Src/stm32f1xx_it.c **** * @brief This function handles DMA1 channel6 global interrupt.
 237:Core/Src/stm32f1xx_it.c **** */
 238:Core/Src/stm32f1xx_it.c **** void DMA1_Channel6_IRQHandler(void)
 239:Core/Src/stm32f1xx_it.c **** {
 295              		.loc 1 239 0
 296              		.cfi_startproc
 297              		@ args = 0, pretend = 0, frame = 0
ARM GAS  /tmp/ccSIrBOe.s 			page 10


 298              		@ frame_needed = 0, uses_anonymous_args = 0
 299 0000 08B5     		push	{r3, lr}
 300              	.LCFI5:
 301              		.cfi_def_cfa_offset 8
 302              		.cfi_offset 3, -8
 303              		.cfi_offset 14, -4
 240:Core/Src/stm32f1xx_it.c ****   /* USER CODE BEGIN DMA1_Channel6_IRQn 0 */
 241:Core/Src/stm32f1xx_it.c **** 
 242:Core/Src/stm32f1xx_it.c ****   /* USER CODE END DMA1_Channel6_IRQn 0 */
 243:Core/Src/stm32f1xx_it.c ****   HAL_DMA_IRQHandler(&hdma_usart2_rx);
 304              		.loc 1 243 0
 305 0002 0248     		ldr	r0, .L29
 306 0004 FFF7FEFF 		bl	HAL_DMA_IRQHandler
 307              	.LVL5:
 308 0008 08BD     		pop	{r3, pc}
 309              	.L30:
 310 000a 00BF     		.align	2
 311              	.L29:
 312 000c 00000000 		.word	hdma_usart2_rx
 313              		.cfi_endproc
 314              	.LFE80:
 316              		.section	.text.TIM1_UP_IRQHandler,"ax",%progbits
 317              		.align	1
 318              		.global	TIM1_UP_IRQHandler
 319              		.syntax unified
 320              		.thumb
 321              		.thumb_func
 322              		.fpu softvfp
 324              	TIM1_UP_IRQHandler:
 325              	.LFB81:
 244:Core/Src/stm32f1xx_it.c ****   /* USER CODE BEGIN DMA1_Channel6_IRQn 1 */
 245:Core/Src/stm32f1xx_it.c **** 
 246:Core/Src/stm32f1xx_it.c ****   /* USER CODE END DMA1_Channel6_IRQn 1 */
 247:Core/Src/stm32f1xx_it.c **** }
 248:Core/Src/stm32f1xx_it.c **** 
 249:Core/Src/stm32f1xx_it.c **** /**
 250:Core/Src/stm32f1xx_it.c **** * @brief This function handles TIM1 update interrupt.
 251:Core/Src/stm32f1xx_it.c **** */
 252:Core/Src/stm32f1xx_it.c **** void TIM1_UP_IRQHandler(void)
 253:Core/Src/stm32f1xx_it.c **** {
 326              		.loc 1 253 0
 327              		.cfi_startproc
 328              		@ args = 0, pretend = 0, frame = 0
 329              		@ frame_needed = 0, uses_anonymous_args = 0
 330 0000 08B5     		push	{r3, lr}
 331              	.LCFI6:
 332              		.cfi_def_cfa_offset 8
 333              		.cfi_offset 3, -8
 334              		.cfi_offset 14, -4
 254:Core/Src/stm32f1xx_it.c ****   /* USER CODE BEGIN TIM1_UP_IRQn 0 */
 255:Core/Src/stm32f1xx_it.c **** 
 256:Core/Src/stm32f1xx_it.c ****   /* USER CODE END TIM1_UP_IRQn 0 */
 257:Core/Src/stm32f1xx_it.c ****   HAL_TIM_IRQHandler(&htim1);
 335              		.loc 1 257 0
 336 0002 0248     		ldr	r0, .L33
 337 0004 FFF7FEFF 		bl	HAL_TIM_IRQHandler
 338              	.LVL6:
ARM GAS  /tmp/ccSIrBOe.s 			page 11


 339 0008 08BD     		pop	{r3, pc}
 340              	.L34:
 341 000a 00BF     		.align	2
 342              	.L33:
 343 000c 00000000 		.word	htim1
 344              		.cfi_endproc
 345              	.LFE81:
 347              		.section	.text.TIM4_IRQHandler,"ax",%progbits
 348              		.align	1
 349              		.global	TIM4_IRQHandler
 350              		.syntax unified
 351              		.thumb
 352              		.thumb_func
 353              		.fpu softvfp
 355              	TIM4_IRQHandler:
 356              	.LFB82:
 258:Core/Src/stm32f1xx_it.c ****   /* USER CODE BEGIN TIM1_UP_IRQn 1 */
 259:Core/Src/stm32f1xx_it.c **** 
 260:Core/Src/stm32f1xx_it.c ****   /* USER CODE END TIM1_UP_IRQn 1 */
 261:Core/Src/stm32f1xx_it.c **** }
 262:Core/Src/stm32f1xx_it.c **** 
 263:Core/Src/stm32f1xx_it.c **** /**
 264:Core/Src/stm32f1xx_it.c **** * @brief This function handles TIM4 global interrupt.
 265:Core/Src/stm32f1xx_it.c **** */
 266:Core/Src/stm32f1xx_it.c **** void TIM4_IRQHandler(void)
 267:Core/Src/stm32f1xx_it.c **** {
 357              		.loc 1 267 0
 358              		.cfi_startproc
 359              		@ args = 0, pretend = 0, frame = 0
 360              		@ frame_needed = 0, uses_anonymous_args = 0
 361 0000 08B5     		push	{r3, lr}
 362              	.LCFI7:
 363              		.cfi_def_cfa_offset 8
 364              		.cfi_offset 3, -8
 365              		.cfi_offset 14, -4
 268:Core/Src/stm32f1xx_it.c ****   /* USER CODE BEGIN TIM4_IRQn 0 */
 269:Core/Src/stm32f1xx_it.c **** 
 270:Core/Src/stm32f1xx_it.c ****   /* USER CODE END TIM4_IRQn 0 */
 271:Core/Src/stm32f1xx_it.c ****   HAL_TIM_IRQHandler(&htim4);
 366              		.loc 1 271 0
 367 0002 0248     		ldr	r0, .L37
 368 0004 FFF7FEFF 		bl	HAL_TIM_IRQHandler
 369              	.LVL7:
 370 0008 08BD     		pop	{r3, pc}
 371              	.L38:
 372 000a 00BF     		.align	2
 373              	.L37:
 374 000c 00000000 		.word	htim4
 375              		.cfi_endproc
 376              	.LFE82:
 378              		.section	.text.USART1_IRQHandler,"ax",%progbits
 379              		.align	1
 380              		.global	USART1_IRQHandler
 381              		.syntax unified
 382              		.thumb
 383              		.thumb_func
 384              		.fpu softvfp
ARM GAS  /tmp/ccSIrBOe.s 			page 12


 386              	USART1_IRQHandler:
 387              	.LFB83:
 272:Core/Src/stm32f1xx_it.c ****   /* USER CODE BEGIN TIM4_IRQn 1 */
 273:Core/Src/stm32f1xx_it.c **** 
 274:Core/Src/stm32f1xx_it.c ****   /* USER CODE END TIM4_IRQn 1 */
 275:Core/Src/stm32f1xx_it.c **** }
 276:Core/Src/stm32f1xx_it.c **** 
 277:Core/Src/stm32f1xx_it.c **** /**
 278:Core/Src/stm32f1xx_it.c **** * @brief This function handles USART1 global interrupt.
 279:Core/Src/stm32f1xx_it.c **** */
 280:Core/Src/stm32f1xx_it.c **** void USART1_IRQHandler(void)
 281:Core/Src/stm32f1xx_it.c **** {
 388              		.loc 1 281 0
 389              		.cfi_startproc
 390              		@ args = 0, pretend = 0, frame = 0
 391              		@ frame_needed = 0, uses_anonymous_args = 0
 392 0000 08B5     		push	{r3, lr}
 393              	.LCFI8:
 394              		.cfi_def_cfa_offset 8
 395              		.cfi_offset 3, -8
 396              		.cfi_offset 14, -4
 282:Core/Src/stm32f1xx_it.c ****   /* USER CODE BEGIN USART1_IRQn 0 */
 283:Core/Src/stm32f1xx_it.c **** 
 284:Core/Src/stm32f1xx_it.c ****   /* USER CODE END USART1_IRQn 0 */
 285:Core/Src/stm32f1xx_it.c ****   HAL_UART_IRQHandler(&huart1);
 397              		.loc 1 285 0
 398 0002 0248     		ldr	r0, .L41
 399 0004 FFF7FEFF 		bl	HAL_UART_IRQHandler
 400              	.LVL8:
 401 0008 08BD     		pop	{r3, pc}
 402              	.L42:
 403 000a 00BF     		.align	2
 404              	.L41:
 405 000c 00000000 		.word	huart1
 406              		.cfi_endproc
 407              	.LFE83:
 409              		.section	.text.USART2_IRQHandler,"ax",%progbits
 410              		.align	1
 411              		.global	USART2_IRQHandler
 412              		.syntax unified
 413              		.thumb
 414              		.thumb_func
 415              		.fpu softvfp
 417              	USART2_IRQHandler:
 418              	.LFB84:
 286:Core/Src/stm32f1xx_it.c ****   /* USER CODE BEGIN USART1_IRQn 1 */
 287:Core/Src/stm32f1xx_it.c **** 
 288:Core/Src/stm32f1xx_it.c ****   /* USER CODE END USART1_IRQn 1 */
 289:Core/Src/stm32f1xx_it.c **** }
 290:Core/Src/stm32f1xx_it.c **** 
 291:Core/Src/stm32f1xx_it.c **** /**
 292:Core/Src/stm32f1xx_it.c **** * @brief This function handles USART2 global interrupt.
 293:Core/Src/stm32f1xx_it.c **** */
 294:Core/Src/stm32f1xx_it.c **** void USART2_IRQHandler(void)
 295:Core/Src/stm32f1xx_it.c **** {
 419              		.loc 1 295 0
 420              		.cfi_startproc
ARM GAS  /tmp/ccSIrBOe.s 			page 13


 421              		@ args = 0, pretend = 0, frame = 0
 422              		@ frame_needed = 0, uses_anonymous_args = 0
 423 0000 08B5     		push	{r3, lr}
 424              	.LCFI9:
 425              		.cfi_def_cfa_offset 8
 426              		.cfi_offset 3, -8
 427              		.cfi_offset 14, -4
 296:Core/Src/stm32f1xx_it.c ****   /* USER CODE BEGIN USART2_IRQn 0 */
 297:Core/Src/stm32f1xx_it.c **** 
 298:Core/Src/stm32f1xx_it.c ****   /* USER CODE END USART2_IRQn 0 */
 299:Core/Src/stm32f1xx_it.c ****   HAL_UART_IRQHandler(&huart2);
 428              		.loc 1 299 0
 429 0002 0248     		ldr	r0, .L45
 430 0004 FFF7FEFF 		bl	HAL_UART_IRQHandler
 431              	.LVL9:
 432 0008 08BD     		pop	{r3, pc}
 433              	.L46:
 434 000a 00BF     		.align	2
 435              	.L45:
 436 000c 00000000 		.word	huart2
 437              		.cfi_endproc
 438              	.LFE84:
 440              		.section	.text.USART3_IRQHandler,"ax",%progbits
 441              		.align	1
 442              		.global	USART3_IRQHandler
 443              		.syntax unified
 444              		.thumb
 445              		.thumb_func
 446              		.fpu softvfp
 448              	USART3_IRQHandler:
 449              	.LFB85:
 300:Core/Src/stm32f1xx_it.c ****   /* USER CODE BEGIN USART2_IRQn 1 */
 301:Core/Src/stm32f1xx_it.c **** 
 302:Core/Src/stm32f1xx_it.c ****   /* USER CODE END USART2_IRQn 1 */
 303:Core/Src/stm32f1xx_it.c **** }
 304:Core/Src/stm32f1xx_it.c **** 
 305:Core/Src/stm32f1xx_it.c **** /**
 306:Core/Src/stm32f1xx_it.c **** * @brief This function handles USART3 global interrupt.
 307:Core/Src/stm32f1xx_it.c **** */
 308:Core/Src/stm32f1xx_it.c **** void USART3_IRQHandler(void)
 309:Core/Src/stm32f1xx_it.c **** {
 450              		.loc 1 309 0
 451              		.cfi_startproc
 452              		@ args = 0, pretend = 0, frame = 0
 453              		@ frame_needed = 0, uses_anonymous_args = 0
 454 0000 08B5     		push	{r3, lr}
 455              	.LCFI10:
 456              		.cfi_def_cfa_offset 8
 457              		.cfi_offset 3, -8
 458              		.cfi_offset 14, -4
 310:Core/Src/stm32f1xx_it.c ****   /* USER CODE BEGIN USART3_IRQn 0 */
 311:Core/Src/stm32f1xx_it.c **** 
 312:Core/Src/stm32f1xx_it.c ****   /* USER CODE END USART3_IRQn 0 */
 313:Core/Src/stm32f1xx_it.c ****   HAL_UART_IRQHandler(&huart3);
 459              		.loc 1 313 0
 460 0002 0248     		ldr	r0, .L49
 461 0004 FFF7FEFF 		bl	HAL_UART_IRQHandler
ARM GAS  /tmp/ccSIrBOe.s 			page 14


 462              	.LVL10:
 463 0008 08BD     		pop	{r3, pc}
 464              	.L50:
 465 000a 00BF     		.align	2
 466              	.L49:
 467 000c 00000000 		.word	huart3
 468              		.cfi_endproc
 469              	.LFE85:
 471              		.section	.text.TIM5_IRQHandler,"ax",%progbits
 472              		.align	1
 473              		.global	TIM5_IRQHandler
 474              		.syntax unified
 475              		.thumb
 476              		.thumb_func
 477              		.fpu softvfp
 479              	TIM5_IRQHandler:
 480              	.LFB86:
 314:Core/Src/stm32f1xx_it.c ****   /* USER CODE BEGIN USART3_IRQn 1 */
 315:Core/Src/stm32f1xx_it.c **** 
 316:Core/Src/stm32f1xx_it.c ****   /* USER CODE END USART3_IRQn 1 */
 317:Core/Src/stm32f1xx_it.c **** }
 318:Core/Src/stm32f1xx_it.c **** 
 319:Core/Src/stm32f1xx_it.c **** /**
 320:Core/Src/stm32f1xx_it.c **** * @brief This function handles TIM5 global interrupt.
 321:Core/Src/stm32f1xx_it.c **** */
 322:Core/Src/stm32f1xx_it.c **** void TIM5_IRQHandler(void)
 323:Core/Src/stm32f1xx_it.c **** {
 481              		.loc 1 323 0
 482              		.cfi_startproc
 483              		@ args = 0, pretend = 0, frame = 0
 484              		@ frame_needed = 0, uses_anonymous_args = 0
 485 0000 08B5     		push	{r3, lr}
 486              	.LCFI11:
 487              		.cfi_def_cfa_offset 8
 488              		.cfi_offset 3, -8
 489              		.cfi_offset 14, -4
 324:Core/Src/stm32f1xx_it.c ****   /* USER CODE BEGIN TIM5_IRQn 0 */
 325:Core/Src/stm32f1xx_it.c **** 
 326:Core/Src/stm32f1xx_it.c ****   /* USER CODE END TIM5_IRQn 0 */
 327:Core/Src/stm32f1xx_it.c ****   HAL_TIM_IRQHandler(&htim5);
 490              		.loc 1 327 0
 491 0002 0248     		ldr	r0, .L53
 492 0004 FFF7FEFF 		bl	HAL_TIM_IRQHandler
 493              	.LVL11:
 494 0008 08BD     		pop	{r3, pc}
 495              	.L54:
 496 000a 00BF     		.align	2
 497              	.L53:
 498 000c 00000000 		.word	htim5
 499              		.cfi_endproc
 500              	.LFE86:
 502              		.text
 503              	.Letext0:
 504              		.file 2 "/usr/include/newlib/machine/_default_types.h"
 505              		.file 3 "/usr/include/newlib/sys/_stdint.h"
 506              		.file 4 "Drivers/CMSIS/Include/core_cm3.h"
 507              		.file 5 "Drivers/CMSIS/Device/ST/STM32F1xx/Include/system_stm32f1xx.h"
ARM GAS  /tmp/ccSIrBOe.s 			page 15


 508              		.file 6 "Drivers/CMSIS/Device/ST/STM32F1xx/Include/stm32f103xe.h"
 509              		.file 7 "/usr/include/newlib/sys/lock.h"
 510              		.file 8 "/usr/include/newlib/sys/_types.h"
 511              		.file 9 "/usr/lib/gcc/arm-none-eabi/6.3.1/include/stddef.h"
 512              		.file 10 "/usr/include/newlib/sys/reent.h"
 513              		.file 11 "Drivers/STM32F1xx_HAL_Driver/Inc/stm32f1xx_hal_def.h"
 514              		.file 12 "Drivers/STM32F1xx_HAL_Driver/Inc/stm32f1xx_hal_dma.h"
 515              		.file 13 "Drivers/STM32F1xx_HAL_Driver/Inc/stm32f1xx_hal_tim.h"
 516              		.file 14 "Drivers/STM32F1xx_HAL_Driver/Inc/stm32f1xx_hal_uart.h"
 517              		.file 15 "Drivers/STM32F1xx_HAL_Driver/Inc/stm32f1xx_hal_gpio.h"
 518              		.file 16 "Middlewares/Third_Party/FreeRTOS/Source/CMSIS_RTOS/cmsis_os.h"
ARM GAS  /tmp/ccSIrBOe.s 			page 16


DEFINED SYMBOLS
                            *ABS*:0000000000000000 stm32f1xx_it.c
     /tmp/ccSIrBOe.s:16     .text.NMI_Handler:0000000000000000 $t
     /tmp/ccSIrBOe.s:23     .text.NMI_Handler:0000000000000000 NMI_Handler
     /tmp/ccSIrBOe.s:36     .text.HardFault_Handler:0000000000000000 $t
     /tmp/ccSIrBOe.s:43     .text.HardFault_Handler:0000000000000000 HardFault_Handler
     /tmp/ccSIrBOe.s:57     .text.MemManage_Handler:0000000000000000 $t
     /tmp/ccSIrBOe.s:64     .text.MemManage_Handler:0000000000000000 MemManage_Handler
     /tmp/ccSIrBOe.s:78     .text.BusFault_Handler:0000000000000000 $t
     /tmp/ccSIrBOe.s:85     .text.BusFault_Handler:0000000000000000 BusFault_Handler
     /tmp/ccSIrBOe.s:99     .text.UsageFault_Handler:0000000000000000 $t
     /tmp/ccSIrBOe.s:106    .text.UsageFault_Handler:0000000000000000 UsageFault_Handler
     /tmp/ccSIrBOe.s:120    .text.DebugMon_Handler:0000000000000000 $t
     /tmp/ccSIrBOe.s:127    .text.DebugMon_Handler:0000000000000000 DebugMon_Handler
     /tmp/ccSIrBOe.s:139    .text.SysTick_Handler:0000000000000000 $t
     /tmp/ccSIrBOe.s:146    .text.SysTick_Handler:0000000000000000 SysTick_Handler
     /tmp/ccSIrBOe.s:166    .text.EXTI4_IRQHandler:0000000000000000 $t
     /tmp/ccSIrBOe.s:173    .text.EXTI4_IRQHandler:0000000000000000 EXTI4_IRQHandler
     /tmp/ccSIrBOe.s:193    .text.DMA1_Channel1_IRQHandler:0000000000000000 $t
     /tmp/ccSIrBOe.s:200    .text.DMA1_Channel1_IRQHandler:0000000000000000 DMA1_Channel1_IRQHandler
     /tmp/ccSIrBOe.s:219    .text.DMA1_Channel1_IRQHandler:000000000000000c $d
     /tmp/ccSIrBOe.s:224    .text.DMA1_Channel3_IRQHandler:0000000000000000 $t
     /tmp/ccSIrBOe.s:231    .text.DMA1_Channel3_IRQHandler:0000000000000000 DMA1_Channel3_IRQHandler
     /tmp/ccSIrBOe.s:250    .text.DMA1_Channel3_IRQHandler:000000000000000c $d
     /tmp/ccSIrBOe.s:255    .text.DMA1_Channel5_IRQHandler:0000000000000000 $t
     /tmp/ccSIrBOe.s:262    .text.DMA1_Channel5_IRQHandler:0000000000000000 DMA1_Channel5_IRQHandler
     /tmp/ccSIrBOe.s:281    .text.DMA1_Channel5_IRQHandler:000000000000000c $d
     /tmp/ccSIrBOe.s:286    .text.DMA1_Channel6_IRQHandler:0000000000000000 $t
     /tmp/ccSIrBOe.s:293    .text.DMA1_Channel6_IRQHandler:0000000000000000 DMA1_Channel6_IRQHandler
     /tmp/ccSIrBOe.s:312    .text.DMA1_Channel6_IRQHandler:000000000000000c $d
     /tmp/ccSIrBOe.s:317    .text.TIM1_UP_IRQHandler:0000000000000000 $t
     /tmp/ccSIrBOe.s:324    .text.TIM1_UP_IRQHandler:0000000000000000 TIM1_UP_IRQHandler
     /tmp/ccSIrBOe.s:343    .text.TIM1_UP_IRQHandler:000000000000000c $d
     /tmp/ccSIrBOe.s:348    .text.TIM4_IRQHandler:0000000000000000 $t
     /tmp/ccSIrBOe.s:355    .text.TIM4_IRQHandler:0000000000000000 TIM4_IRQHandler
     /tmp/ccSIrBOe.s:374    .text.TIM4_IRQHandler:000000000000000c $d
     /tmp/ccSIrBOe.s:379    .text.USART1_IRQHandler:0000000000000000 $t
     /tmp/ccSIrBOe.s:386    .text.USART1_IRQHandler:0000000000000000 USART1_IRQHandler
     /tmp/ccSIrBOe.s:405    .text.USART1_IRQHandler:000000000000000c $d
     /tmp/ccSIrBOe.s:410    .text.USART2_IRQHandler:0000000000000000 $t
     /tmp/ccSIrBOe.s:417    .text.USART2_IRQHandler:0000000000000000 USART2_IRQHandler
     /tmp/ccSIrBOe.s:436    .text.USART2_IRQHandler:000000000000000c $d
     /tmp/ccSIrBOe.s:441    .text.USART3_IRQHandler:0000000000000000 $t
     /tmp/ccSIrBOe.s:448    .text.USART3_IRQHandler:0000000000000000 USART3_IRQHandler
     /tmp/ccSIrBOe.s:467    .text.USART3_IRQHandler:000000000000000c $d
     /tmp/ccSIrBOe.s:472    .text.TIM5_IRQHandler:0000000000000000 $t
     /tmp/ccSIrBOe.s:479    .text.TIM5_IRQHandler:0000000000000000 TIM5_IRQHandler
     /tmp/ccSIrBOe.s:498    .text.TIM5_IRQHandler:000000000000000c $d
                     .debug_frame:0000000000000010 $d

UNDEFINED SYMBOLS
osSystickHandler
HAL_GPIO_EXTI_IRQHandler
HAL_DMA_IRQHandler
hdma_adc1
hdma_usart3_rx
hdma_usart1_rx
ARM GAS  /tmp/ccSIrBOe.s 			page 17


hdma_usart2_rx
HAL_TIM_IRQHandler
htim1
htim4
HAL_UART_IRQHandler
huart1
huart2
huart3
htim5
